
rtarget:     file format elf64-x86-64


Disassembly of section .init:

0000000000400d68 <_init>:
  400d68:	48 83 ec 08          	sub    $0x8,%rsp
  400d6c:	48 8b 05 85 42 20 00 	mov    0x204285(%rip),%rax        # 604ff8 <_DYNAMIC+0x1d0>
  400d73:	48 85 c0             	test   %rax,%rax
  400d76:	74 05                	je     400d7d <_init+0x15>
  400d78:	e8 83 02 00 00       	callq  401000 <socket@plt+0x10>
  400d7d:	48 83 c4 08          	add    $0x8,%rsp
  400d81:	c3                   	retq   

Disassembly of section .plt:

0000000000400d90 <putchar@plt-0x10>:
  400d90:	ff 35 72 42 20 00    	pushq  0x204272(%rip)        # 605008 <_GLOBAL_OFFSET_TABLE_+0x8>
  400d96:	ff 25 74 42 20 00    	jmpq   *0x204274(%rip)        # 605010 <_GLOBAL_OFFSET_TABLE_+0x10>
  400d9c:	0f 1f 40 00          	nopl   0x0(%rax)

0000000000400da0 <putchar@plt>:
  400da0:	ff 25 72 42 20 00    	jmpq   *0x204272(%rip)        # 605018 <_GLOBAL_OFFSET_TABLE_+0x18>
  400da6:	68 00 00 00 00       	pushq  $0x0
  400dab:	e9 e0 ff ff ff       	jmpq   400d90 <_init+0x28>

0000000000400db0 <strcasecmp@plt>:
  400db0:	ff 25 6a 42 20 00    	jmpq   *0x20426a(%rip)        # 605020 <_GLOBAL_OFFSET_TABLE_+0x20>
  400db6:	68 01 00 00 00       	pushq  $0x1
  400dbb:	e9 d0 ff ff ff       	jmpq   400d90 <_init+0x28>

0000000000400dc0 <__errno_location@plt>:
  400dc0:	ff 25 62 42 20 00    	jmpq   *0x204262(%rip)        # 605028 <_GLOBAL_OFFSET_TABLE_+0x28>
  400dc6:	68 02 00 00 00       	pushq  $0x2
  400dcb:	e9 c0 ff ff ff       	jmpq   400d90 <_init+0x28>

0000000000400dd0 <srandom@plt>:
  400dd0:	ff 25 5a 42 20 00    	jmpq   *0x20425a(%rip)        # 605030 <_GLOBAL_OFFSET_TABLE_+0x30>
  400dd6:	68 03 00 00 00       	pushq  $0x3
  400ddb:	e9 b0 ff ff ff       	jmpq   400d90 <_init+0x28>

0000000000400de0 <strncmp@plt>:
  400de0:	ff 25 52 42 20 00    	jmpq   *0x204252(%rip)        # 605038 <_GLOBAL_OFFSET_TABLE_+0x38>
  400de6:	68 04 00 00 00       	pushq  $0x4
  400deb:	e9 a0 ff ff ff       	jmpq   400d90 <_init+0x28>

0000000000400df0 <strcpy@plt>:
  400df0:	ff 25 4a 42 20 00    	jmpq   *0x20424a(%rip)        # 605040 <_GLOBAL_OFFSET_TABLE_+0x40>
  400df6:	68 05 00 00 00       	pushq  $0x5
  400dfb:	e9 90 ff ff ff       	jmpq   400d90 <_init+0x28>

0000000000400e00 <puts@plt>:
  400e00:	ff 25 42 42 20 00    	jmpq   *0x204242(%rip)        # 605048 <_GLOBAL_OFFSET_TABLE_+0x48>
  400e06:	68 06 00 00 00       	pushq  $0x6
  400e0b:	e9 80 ff ff ff       	jmpq   400d90 <_init+0x28>

0000000000400e10 <write@plt>:
  400e10:	ff 25 3a 42 20 00    	jmpq   *0x20423a(%rip)        # 605050 <_GLOBAL_OFFSET_TABLE_+0x50>
  400e16:	68 07 00 00 00       	pushq  $0x7
  400e1b:	e9 70 ff ff ff       	jmpq   400d90 <_init+0x28>

0000000000400e20 <__stack_chk_fail@plt>:
  400e20:	ff 25 32 42 20 00    	jmpq   *0x204232(%rip)        # 605058 <_GLOBAL_OFFSET_TABLE_+0x58>
  400e26:	68 08 00 00 00       	pushq  $0x8
  400e2b:	e9 60 ff ff ff       	jmpq   400d90 <_init+0x28>

0000000000400e30 <mmap@plt>:
  400e30:	ff 25 2a 42 20 00    	jmpq   *0x20422a(%rip)        # 605060 <_GLOBAL_OFFSET_TABLE_+0x60>
  400e36:	68 09 00 00 00       	pushq  $0x9
  400e3b:	e9 50 ff ff ff       	jmpq   400d90 <_init+0x28>

0000000000400e40 <memset@plt>:
  400e40:	ff 25 22 42 20 00    	jmpq   *0x204222(%rip)        # 605068 <_GLOBAL_OFFSET_TABLE_+0x68>
  400e46:	68 0a 00 00 00       	pushq  $0xa
  400e4b:	e9 40 ff ff ff       	jmpq   400d90 <_init+0x28>

0000000000400e50 <alarm@plt>:
  400e50:	ff 25 1a 42 20 00    	jmpq   *0x20421a(%rip)        # 605070 <_GLOBAL_OFFSET_TABLE_+0x70>
  400e56:	68 0b 00 00 00       	pushq  $0xb
  400e5b:	e9 30 ff ff ff       	jmpq   400d90 <_init+0x28>

0000000000400e60 <close@plt>:
  400e60:	ff 25 12 42 20 00    	jmpq   *0x204212(%rip)        # 605078 <_GLOBAL_OFFSET_TABLE_+0x78>
  400e66:	68 0c 00 00 00       	pushq  $0xc
  400e6b:	e9 20 ff ff ff       	jmpq   400d90 <_init+0x28>

0000000000400e70 <read@plt>:
  400e70:	ff 25 0a 42 20 00    	jmpq   *0x20420a(%rip)        # 605080 <_GLOBAL_OFFSET_TABLE_+0x80>
  400e76:	68 0d 00 00 00       	pushq  $0xd
  400e7b:	e9 10 ff ff ff       	jmpq   400d90 <_init+0x28>

0000000000400e80 <__libc_start_main@plt>:
  400e80:	ff 25 02 42 20 00    	jmpq   *0x204202(%rip)        # 605088 <_GLOBAL_OFFSET_TABLE_+0x88>
  400e86:	68 0e 00 00 00       	pushq  $0xe
  400e8b:	e9 00 ff ff ff       	jmpq   400d90 <_init+0x28>

0000000000400e90 <srand@plt>:
  400e90:	ff 25 fa 41 20 00    	jmpq   *0x2041fa(%rip)        # 605090 <_GLOBAL_OFFSET_TABLE_+0x90>
  400e96:	68 0f 00 00 00       	pushq  $0xf
  400e9b:	e9 f0 fe ff ff       	jmpq   400d90 <_init+0x28>

0000000000400ea0 <signal@plt>:
  400ea0:	ff 25 f2 41 20 00    	jmpq   *0x2041f2(%rip)        # 605098 <_GLOBAL_OFFSET_TABLE_+0x98>
  400ea6:	68 10 00 00 00       	pushq  $0x10
  400eab:	e9 e0 fe ff ff       	jmpq   400d90 <_init+0x28>

0000000000400eb0 <gethostbyname@plt>:
  400eb0:	ff 25 ea 41 20 00    	jmpq   *0x2041ea(%rip)        # 6050a0 <_GLOBAL_OFFSET_TABLE_+0xa0>
  400eb6:	68 11 00 00 00       	pushq  $0x11
  400ebb:	e9 d0 fe ff ff       	jmpq   400d90 <_init+0x28>

0000000000400ec0 <__memmove_chk@plt>:
  400ec0:	ff 25 e2 41 20 00    	jmpq   *0x2041e2(%rip)        # 6050a8 <_GLOBAL_OFFSET_TABLE_+0xa8>
  400ec6:	68 12 00 00 00       	pushq  $0x12
  400ecb:	e9 c0 fe ff ff       	jmpq   400d90 <_init+0x28>

0000000000400ed0 <strtol@plt>:
  400ed0:	ff 25 da 41 20 00    	jmpq   *0x2041da(%rip)        # 6050b0 <_GLOBAL_OFFSET_TABLE_+0xb0>
  400ed6:	68 13 00 00 00       	pushq  $0x13
  400edb:	e9 b0 fe ff ff       	jmpq   400d90 <_init+0x28>

0000000000400ee0 <memcpy@plt>:
  400ee0:	ff 25 d2 41 20 00    	jmpq   *0x2041d2(%rip)        # 6050b8 <_GLOBAL_OFFSET_TABLE_+0xb8>
  400ee6:	68 14 00 00 00       	pushq  $0x14
  400eeb:	e9 a0 fe ff ff       	jmpq   400d90 <_init+0x28>

0000000000400ef0 <time@plt>:
  400ef0:	ff 25 ca 41 20 00    	jmpq   *0x2041ca(%rip)        # 6050c0 <_GLOBAL_OFFSET_TABLE_+0xc0>
  400ef6:	68 15 00 00 00       	pushq  $0x15
  400efb:	e9 90 fe ff ff       	jmpq   400d90 <_init+0x28>

0000000000400f00 <random@plt>:
  400f00:	ff 25 c2 41 20 00    	jmpq   *0x2041c2(%rip)        # 6050c8 <_GLOBAL_OFFSET_TABLE_+0xc8>
  400f06:	68 16 00 00 00       	pushq  $0x16
  400f0b:	e9 80 fe ff ff       	jmpq   400d90 <_init+0x28>

0000000000400f10 <fflush@plt>:
  400f10:	ff 25 ba 41 20 00    	jmpq   *0x2041ba(%rip)        # 6050d0 <_GLOBAL_OFFSET_TABLE_+0xd0>
  400f16:	68 17 00 00 00       	pushq  $0x17
  400f1b:	e9 70 fe ff ff       	jmpq   400d90 <_init+0x28>

0000000000400f20 <_IO_getc@plt>:
  400f20:	ff 25 b2 41 20 00    	jmpq   *0x2041b2(%rip)        # 6050d8 <_GLOBAL_OFFSET_TABLE_+0xd8>
  400f26:	68 18 00 00 00       	pushq  $0x18
  400f2b:	e9 60 fe ff ff       	jmpq   400d90 <_init+0x28>

0000000000400f30 <__isoc99_sscanf@plt>:
  400f30:	ff 25 aa 41 20 00    	jmpq   *0x2041aa(%rip)        # 6050e0 <_GLOBAL_OFFSET_TABLE_+0xe0>
  400f36:	68 19 00 00 00       	pushq  $0x19
  400f3b:	e9 50 fe ff ff       	jmpq   400d90 <_init+0x28>

0000000000400f40 <munmap@plt>:
  400f40:	ff 25 a2 41 20 00    	jmpq   *0x2041a2(%rip)        # 6050e8 <_GLOBAL_OFFSET_TABLE_+0xe8>
  400f46:	68 1a 00 00 00       	pushq  $0x1a
  400f4b:	e9 40 fe ff ff       	jmpq   400d90 <_init+0x28>

0000000000400f50 <__printf_chk@plt>:
  400f50:	ff 25 9a 41 20 00    	jmpq   *0x20419a(%rip)        # 6050f0 <_GLOBAL_OFFSET_TABLE_+0xf0>
  400f56:	68 1b 00 00 00       	pushq  $0x1b
  400f5b:	e9 30 fe ff ff       	jmpq   400d90 <_init+0x28>

0000000000400f60 <fopen@plt>:
  400f60:	ff 25 92 41 20 00    	jmpq   *0x204192(%rip)        # 6050f8 <_GLOBAL_OFFSET_TABLE_+0xf8>
  400f66:	68 1c 00 00 00       	pushq  $0x1c
  400f6b:	e9 20 fe ff ff       	jmpq   400d90 <_init+0x28>

0000000000400f70 <getopt@plt>:
  400f70:	ff 25 8a 41 20 00    	jmpq   *0x20418a(%rip)        # 605100 <_GLOBAL_OFFSET_TABLE_+0x100>
  400f76:	68 1d 00 00 00       	pushq  $0x1d
  400f7b:	e9 10 fe ff ff       	jmpq   400d90 <_init+0x28>

0000000000400f80 <strtoul@plt>:
  400f80:	ff 25 82 41 20 00    	jmpq   *0x204182(%rip)        # 605108 <_GLOBAL_OFFSET_TABLE_+0x108>
  400f86:	68 1e 00 00 00       	pushq  $0x1e
  400f8b:	e9 00 fe ff ff       	jmpq   400d90 <_init+0x28>

0000000000400f90 <gethostname@plt>:
  400f90:	ff 25 7a 41 20 00    	jmpq   *0x20417a(%rip)        # 605110 <_GLOBAL_OFFSET_TABLE_+0x110>
  400f96:	68 1f 00 00 00       	pushq  $0x1f
  400f9b:	e9 f0 fd ff ff       	jmpq   400d90 <_init+0x28>

0000000000400fa0 <exit@plt>:
  400fa0:	ff 25 72 41 20 00    	jmpq   *0x204172(%rip)        # 605118 <_GLOBAL_OFFSET_TABLE_+0x118>
  400fa6:	68 20 00 00 00       	pushq  $0x20
  400fab:	e9 e0 fd ff ff       	jmpq   400d90 <_init+0x28>

0000000000400fb0 <connect@plt>:
  400fb0:	ff 25 6a 41 20 00    	jmpq   *0x20416a(%rip)        # 605120 <_GLOBAL_OFFSET_TABLE_+0x120>
  400fb6:	68 21 00 00 00       	pushq  $0x21
  400fbb:	e9 d0 fd ff ff       	jmpq   400d90 <_init+0x28>

0000000000400fc0 <__fprintf_chk@plt>:
  400fc0:	ff 25 62 41 20 00    	jmpq   *0x204162(%rip)        # 605128 <_GLOBAL_OFFSET_TABLE_+0x128>
  400fc6:	68 22 00 00 00       	pushq  $0x22
  400fcb:	e9 c0 fd ff ff       	jmpq   400d90 <_init+0x28>

0000000000400fd0 <rand@plt>:
  400fd0:	ff 25 5a 41 20 00    	jmpq   *0x20415a(%rip)        # 605130 <_GLOBAL_OFFSET_TABLE_+0x130>
  400fd6:	68 23 00 00 00       	pushq  $0x23
  400fdb:	e9 b0 fd ff ff       	jmpq   400d90 <_init+0x28>

0000000000400fe0 <__sprintf_chk@plt>:
  400fe0:	ff 25 52 41 20 00    	jmpq   *0x204152(%rip)        # 605138 <_GLOBAL_OFFSET_TABLE_+0x138>
  400fe6:	68 24 00 00 00       	pushq  $0x24
  400feb:	e9 a0 fd ff ff       	jmpq   400d90 <_init+0x28>

0000000000400ff0 <socket@plt>:
  400ff0:	ff 25 4a 41 20 00    	jmpq   *0x20414a(%rip)        # 605140 <_GLOBAL_OFFSET_TABLE_+0x140>
  400ff6:	68 25 00 00 00       	pushq  $0x25
  400ffb:	e9 90 fd ff ff       	jmpq   400d90 <_init+0x28>

Disassembly of section .plt.got:

0000000000401000 <.plt.got>:
  401000:	ff 25 f2 3f 20 00    	jmpq   *0x203ff2(%rip)        # 604ff8 <_DYNAMIC+0x1d0>
  401006:	66 90                	xchg   %ax,%ax

Disassembly of section .text:

0000000000401010 <_start>:
  401010:	31 ed                	xor    %ebp,%ebp
  401012:	49 89 d1             	mov    %rdx,%r9
  401015:	5e                   	pop    %rsi
  401016:	48 89 e2             	mov    %rsp,%rdx
  401019:	48 83 e4 f0          	and    $0xfffffffffffffff0,%rsp
  40101d:	50                   	push   %rax
  40101e:	54                   	push   %rsp
  40101f:	49 c7 c0 e0 31 40 00 	mov    $0x4031e0,%r8
  401026:	48 c7 c1 70 31 40 00 	mov    $0x403170,%rcx
  40102d:	48 c7 c7 15 13 40 00 	mov    $0x401315,%rdi
  401034:	e8 47 fe ff ff       	callq  400e80 <__libc_start_main@plt>
  401039:	f4                   	hlt    
  40103a:	66 0f 1f 44 00 00    	nopw   0x0(%rax,%rax,1)

0000000000401040 <deregister_tm_clones>:
  401040:	b8 d7 54 60 00       	mov    $0x6054d7,%eax
  401045:	55                   	push   %rbp
  401046:	48 2d d0 54 60 00    	sub    $0x6054d0,%rax
  40104c:	48 83 f8 0e          	cmp    $0xe,%rax
  401050:	48 89 e5             	mov    %rsp,%rbp
  401053:	76 1b                	jbe    401070 <deregister_tm_clones+0x30>
  401055:	b8 00 00 00 00       	mov    $0x0,%eax
  40105a:	48 85 c0             	test   %rax,%rax
  40105d:	74 11                	je     401070 <deregister_tm_clones+0x30>
  40105f:	5d                   	pop    %rbp
  401060:	bf d0 54 60 00       	mov    $0x6054d0,%edi
  401065:	ff e0                	jmpq   *%rax
  401067:	66 0f 1f 84 00 00 00 	nopw   0x0(%rax,%rax,1)
  40106e:	00 00 
  401070:	5d                   	pop    %rbp
  401071:	c3                   	retq   
  401072:	0f 1f 40 00          	nopl   0x0(%rax)
  401076:	66 2e 0f 1f 84 00 00 	nopw   %cs:0x0(%rax,%rax,1)
  40107d:	00 00 00 

0000000000401080 <register_tm_clones>:
  401080:	be d0 54 60 00       	mov    $0x6054d0,%esi
  401085:	55                   	push   %rbp
  401086:	48 81 ee d0 54 60 00 	sub    $0x6054d0,%rsi
  40108d:	48 c1 fe 03          	sar    $0x3,%rsi
  401091:	48 89 e5             	mov    %rsp,%rbp
  401094:	48 89 f0             	mov    %rsi,%rax
  401097:	48 c1 e8 3f          	shr    $0x3f,%rax
  40109b:	48 01 c6             	add    %rax,%rsi
  40109e:	48 d1 fe             	sar    %rsi
  4010a1:	74 15                	je     4010b8 <register_tm_clones+0x38>
  4010a3:	b8 00 00 00 00       	mov    $0x0,%eax
  4010a8:	48 85 c0             	test   %rax,%rax
  4010ab:	74 0b                	je     4010b8 <register_tm_clones+0x38>
  4010ad:	5d                   	pop    %rbp
  4010ae:	bf d0 54 60 00       	mov    $0x6054d0,%edi
  4010b3:	ff e0                	jmpq   *%rax
  4010b5:	0f 1f 00             	nopl   (%rax)
  4010b8:	5d                   	pop    %rbp
  4010b9:	c3                   	retq   
  4010ba:	66 0f 1f 44 00 00    	nopw   0x0(%rax,%rax,1)

00000000004010c0 <__do_global_dtors_aux>:
  4010c0:	80 3d 41 44 20 00 00 	cmpb   $0x0,0x204441(%rip)        # 605508 <completed.7585>
  4010c7:	75 11                	jne    4010da <__do_global_dtors_aux+0x1a>
  4010c9:	55                   	push   %rbp
  4010ca:	48 89 e5             	mov    %rsp,%rbp
  4010cd:	e8 6e ff ff ff       	callq  401040 <deregister_tm_clones>
  4010d2:	5d                   	pop    %rbp
  4010d3:	c6 05 2e 44 20 00 01 	movb   $0x1,0x20442e(%rip)        # 605508 <completed.7585>
  4010da:	f3 c3                	repz retq 
  4010dc:	0f 1f 40 00          	nopl   0x0(%rax)

00000000004010e0 <frame_dummy>:
  4010e0:	bf 20 4e 60 00       	mov    $0x604e20,%edi
  4010e5:	48 83 3f 00          	cmpq   $0x0,(%rdi)
  4010e9:	75 05                	jne    4010f0 <frame_dummy+0x10>
  4010eb:	eb 93                	jmp    401080 <register_tm_clones>
  4010ed:	0f 1f 00             	nopl   (%rax)
  4010f0:	b8 00 00 00 00       	mov    $0x0,%eax
  4010f5:	48 85 c0             	test   %rax,%rax
  4010f8:	74 f1                	je     4010eb <frame_dummy+0xb>
  4010fa:	55                   	push   %rbp
  4010fb:	48 89 e5             	mov    %rsp,%rbp
  4010fe:	ff d0                	callq  *%rax
  401100:	5d                   	pop    %rbp
  401101:	e9 7a ff ff ff       	jmpq   401080 <register_tm_clones>

0000000000401106 <usage>:
  401106:	48 83 ec 08          	sub    $0x8,%rsp
  40110a:	48 89 fa             	mov    %rdi,%rdx
  40110d:	83 3d 34 44 20 00 00 	cmpl   $0x0,0x204434(%rip)        # 605548 <is_checker>
  401114:	74 3e                	je     401154 <usage+0x4e>
  401116:	be f8 31 40 00       	mov    $0x4031f8,%esi
  40111b:	bf 01 00 00 00       	mov    $0x1,%edi
  401120:	b8 00 00 00 00       	mov    $0x0,%eax
  401125:	e8 26 fe ff ff       	callq  400f50 <__printf_chk@plt>
  40112a:	bf 30 32 40 00       	mov    $0x403230,%edi
  40112f:	e8 cc fc ff ff       	callq  400e00 <puts@plt>
  401134:	bf a8 33 40 00       	mov    $0x4033a8,%edi
  401139:	e8 c2 fc ff ff       	callq  400e00 <puts@plt>
  40113e:	bf 58 32 40 00       	mov    $0x403258,%edi
  401143:	e8 b8 fc ff ff       	callq  400e00 <puts@plt>
  401148:	bf c2 33 40 00       	mov    $0x4033c2,%edi
  40114d:	e8 ae fc ff ff       	callq  400e00 <puts@plt>
  401152:	eb 32                	jmp    401186 <usage+0x80>
  401154:	be de 33 40 00       	mov    $0x4033de,%esi
  401159:	bf 01 00 00 00       	mov    $0x1,%edi
  40115e:	b8 00 00 00 00       	mov    $0x0,%eax
  401163:	e8 e8 fd ff ff       	callq  400f50 <__printf_chk@plt>
  401168:	bf 80 32 40 00       	mov    $0x403280,%edi
  40116d:	e8 8e fc ff ff       	callq  400e00 <puts@plt>
  401172:	bf a8 32 40 00       	mov    $0x4032a8,%edi
  401177:	e8 84 fc ff ff       	callq  400e00 <puts@plt>
  40117c:	bf fc 33 40 00       	mov    $0x4033fc,%edi
  401181:	e8 7a fc ff ff       	callq  400e00 <puts@plt>
  401186:	bf 00 00 00 00       	mov    $0x0,%edi
  40118b:	e8 10 fe ff ff       	callq  400fa0 <exit@plt>

0000000000401190 <initialize_target>:
  401190:	55                   	push   %rbp
  401191:	53                   	push   %rbx
  401192:	48 81 ec 18 21 00 00 	sub    $0x2118,%rsp
  401199:	89 f5                	mov    %esi,%ebp
  40119b:	64 48 8b 04 25 28 00 	mov    %fs:0x28,%rax
  4011a2:	00 00 
  4011a4:	48 89 84 24 08 21 00 	mov    %rax,0x2108(%rsp)
  4011ab:	00 
  4011ac:	31 c0                	xor    %eax,%eax
  4011ae:	89 3d 84 43 20 00    	mov    %edi,0x204384(%rip)        # 605538 <check_level>
  4011b4:	8b 3d ce 3f 20 00    	mov    0x203fce(%rip),%edi        # 605188 <target_id>
  4011ba:	e8 92 1f 00 00       	callq  403151 <gencookie>
  4011bf:	89 05 7f 43 20 00    	mov    %eax,0x20437f(%rip)        # 605544 <cookie>
  4011c5:	89 c7                	mov    %eax,%edi
  4011c7:	e8 85 1f 00 00       	callq  403151 <gencookie>
  4011cc:	89 05 6e 43 20 00    	mov    %eax,0x20436e(%rip)        # 605540 <authkey>
  4011d2:	8b 05 b0 3f 20 00    	mov    0x203fb0(%rip),%eax        # 605188 <target_id>
  4011d8:	8d 78 01             	lea    0x1(%rax),%edi
  4011db:	e8 f0 fb ff ff       	callq  400dd0 <srandom@plt>
  4011e0:	e8 1b fd ff ff       	callq  400f00 <random@plt>
  4011e5:	89 c7                	mov    %eax,%edi
  4011e7:	e8 03 03 00 00       	callq  4014ef <scramble>
  4011ec:	89 c3                	mov    %eax,%ebx
  4011ee:	85 ed                	test   %ebp,%ebp
  4011f0:	74 18                	je     40120a <initialize_target+0x7a>
  4011f2:	bf 00 00 00 00       	mov    $0x0,%edi
  4011f7:	e8 f4 fc ff ff       	callq  400ef0 <time@plt>
  4011fc:	89 c7                	mov    %eax,%edi
  4011fe:	e8 cd fb ff ff       	callq  400dd0 <srandom@plt>
  401203:	e8 f8 fc ff ff       	callq  400f00 <random@plt>
  401208:	eb 05                	jmp    40120f <initialize_target+0x7f>
  40120a:	b8 00 00 00 00       	mov    $0x0,%eax
  40120f:	01 c3                	add    %eax,%ebx
  401211:	0f b7 db             	movzwl %bx,%ebx
  401214:	8d 04 dd 00 01 00 00 	lea    0x100(,%rbx,8),%eax
  40121b:	89 c0                	mov    %eax,%eax
  40121d:	48 89 05 9c 42 20 00 	mov    %rax,0x20429c(%rip)        # 6054c0 <buf_offset>
  401224:	c6 05 3d 4f 20 00 72 	movb   $0x72,0x204f3d(%rip)        # 606168 <target_prefix>
  40122b:	83 3d 96 42 20 00 00 	cmpl   $0x0,0x204296(%rip)        # 6054c8 <notify>
  401232:	0f 84 bb 00 00 00    	je     4012f3 <initialize_target+0x163>
  401238:	83 3d 09 43 20 00 00 	cmpl   $0x0,0x204309(%rip)        # 605548 <is_checker>
  40123f:	0f 85 ae 00 00 00    	jne    4012f3 <initialize_target+0x163>
  401245:	be 00 01 00 00       	mov    $0x100,%esi
  40124a:	48 89 e7             	mov    %rsp,%rdi
  40124d:	e8 3e fd ff ff       	callq  400f90 <gethostname@plt>
  401252:	85 c0                	test   %eax,%eax
  401254:	74 25                	je     40127b <initialize_target+0xeb>
  401256:	bf d8 32 40 00       	mov    $0x4032d8,%edi
  40125b:	e8 a0 fb ff ff       	callq  400e00 <puts@plt>
  401260:	bf 08 00 00 00       	mov    $0x8,%edi
  401265:	e8 36 fd ff ff       	callq  400fa0 <exit@plt>
  40126a:	48 89 e6             	mov    %rsp,%rsi
  40126d:	e8 3e fb ff ff       	callq  400db0 <strcasecmp@plt>
  401272:	85 c0                	test   %eax,%eax
  401274:	74 21                	je     401297 <initialize_target+0x107>
  401276:	83 c3 01             	add    $0x1,%ebx
  401279:	eb 05                	jmp    401280 <initialize_target+0xf0>
  40127b:	bb 00 00 00 00       	mov    $0x0,%ebx
  401280:	48 63 c3             	movslq %ebx,%rax
  401283:	48 8b 3c c5 a0 51 60 	mov    0x6051a0(,%rax,8),%rdi
  40128a:	00 
  40128b:	48 85 ff             	test   %rdi,%rdi
  40128e:	75 da                	jne    40126a <initialize_target+0xda>
  401290:	b8 00 00 00 00       	mov    $0x0,%eax
  401295:	eb 05                	jmp    40129c <initialize_target+0x10c>
  401297:	b8 01 00 00 00       	mov    $0x1,%eax
  40129c:	85 c0                	test   %eax,%eax
  40129e:	75 1c                	jne    4012bc <initialize_target+0x12c>
  4012a0:	48 89 e2             	mov    %rsp,%rdx
  4012a3:	be 10 33 40 00       	mov    $0x403310,%esi
  4012a8:	bf 01 00 00 00       	mov    $0x1,%edi
  4012ad:	e8 9e fc ff ff       	callq  400f50 <__printf_chk@plt>
  4012b2:	bf 08 00 00 00       	mov    $0x8,%edi
  4012b7:	e8 e4 fc ff ff       	callq  400fa0 <exit@plt>
  4012bc:	48 8d bc 24 00 01 00 	lea    0x100(%rsp),%rdi
  4012c3:	00 
  4012c4:	e8 f2 1b 00 00       	callq  402ebb <init_driver>
  4012c9:	85 c0                	test   %eax,%eax
  4012cb:	79 26                	jns    4012f3 <initialize_target+0x163>
  4012cd:	48 8d 94 24 00 01 00 	lea    0x100(%rsp),%rdx
  4012d4:	00 
  4012d5:	be 50 33 40 00       	mov    $0x403350,%esi
  4012da:	bf 01 00 00 00       	mov    $0x1,%edi
  4012df:	b8 00 00 00 00       	mov    $0x0,%eax
  4012e4:	e8 67 fc ff ff       	callq  400f50 <__printf_chk@plt>
  4012e9:	bf 08 00 00 00       	mov    $0x8,%edi
  4012ee:	e8 ad fc ff ff       	callq  400fa0 <exit@plt>
  4012f3:	48 8b 84 24 08 21 00 	mov    0x2108(%rsp),%rax
  4012fa:	00 
  4012fb:	64 48 33 04 25 28 00 	xor    %fs:0x28,%rax
  401302:	00 00 
  401304:	74 05                	je     40130b <initialize_target+0x17b>
  401306:	e8 15 fb ff ff       	callq  400e20 <__stack_chk_fail@plt>
  40130b:	48 81 c4 18 21 00 00 	add    $0x2118,%rsp
  401312:	5b                   	pop    %rbx
  401313:	5d                   	pop    %rbp
  401314:	c3                   	retq   

0000000000401315 <main>:
  401315:	41 56                	push   %r14
  401317:	41 55                	push   %r13
  401319:	41 54                	push   %r12
  40131b:	55                   	push   %rbp
  40131c:	53                   	push   %rbx
  40131d:	41 89 fc             	mov    %edi,%r12d
  401320:	48 89 f3             	mov    %rsi,%rbx
  401323:	be f6 21 40 00       	mov    $0x4021f6,%esi
  401328:	bf 0b 00 00 00       	mov    $0xb,%edi
  40132d:	e8 6e fb ff ff       	callq  400ea0 <signal@plt>
  401332:	be a8 21 40 00       	mov    $0x4021a8,%esi
  401337:	bf 07 00 00 00       	mov    $0x7,%edi
  40133c:	e8 5f fb ff ff       	callq  400ea0 <signal@plt>
  401341:	be 44 22 40 00       	mov    $0x402244,%esi
  401346:	bf 04 00 00 00       	mov    $0x4,%edi
  40134b:	e8 50 fb ff ff       	callq  400ea0 <signal@plt>
  401350:	83 3d f1 41 20 00 00 	cmpl   $0x0,0x2041f1(%rip)        # 605548 <is_checker>
  401357:	74 20                	je     401379 <main+0x64>
  401359:	be 92 22 40 00       	mov    $0x402292,%esi
  40135e:	bf 0e 00 00 00       	mov    $0xe,%edi
  401363:	e8 38 fb ff ff       	callq  400ea0 <signal@plt>
  401368:	bf 05 00 00 00       	mov    $0x5,%edi
  40136d:	e8 de fa ff ff       	callq  400e50 <alarm@plt>
  401372:	bd 1a 34 40 00       	mov    $0x40341a,%ebp
  401377:	eb 05                	jmp    40137e <main+0x69>
  401379:	bd 15 34 40 00       	mov    $0x403415,%ebp
  40137e:	48 8b 05 6b 41 20 00 	mov    0x20416b(%rip),%rax        # 6054f0 <stdin@@GLIBC_2.2.5>
  401385:	48 89 05 a4 41 20 00 	mov    %rax,0x2041a4(%rip)        # 605530 <infile>
  40138c:	41 bd 00 00 00 00    	mov    $0x0,%r13d
  401392:	41 be 00 00 00 00    	mov    $0x0,%r14d
  401398:	e9 c6 00 00 00       	jmpq   401463 <main+0x14e>
  40139d:	83 e8 61             	sub    $0x61,%eax
  4013a0:	3c 10                	cmp    $0x10,%al
  4013a2:	0f 87 9c 00 00 00    	ja     401444 <main+0x12f>
  4013a8:	0f b6 c0             	movzbl %al,%eax
  4013ab:	ff 24 c5 60 34 40 00 	jmpq   *0x403460(,%rax,8)
  4013b2:	48 8b 3b             	mov    (%rbx),%rdi
  4013b5:	e8 4c fd ff ff       	callq  401106 <usage>
  4013ba:	be 6d 3a 40 00       	mov    $0x403a6d,%esi
  4013bf:	48 8b 3d 32 41 20 00 	mov    0x204132(%rip),%rdi        # 6054f8 <optarg@@GLIBC_2.2.5>
  4013c6:	e8 95 fb ff ff       	callq  400f60 <fopen@plt>
  4013cb:	48 89 05 5e 41 20 00 	mov    %rax,0x20415e(%rip)        # 605530 <infile>
  4013d2:	48 85 c0             	test   %rax,%rax
  4013d5:	0f 85 88 00 00 00    	jne    401463 <main+0x14e>
  4013db:	48 8b 0d 16 41 20 00 	mov    0x204116(%rip),%rcx        # 6054f8 <optarg@@GLIBC_2.2.5>
  4013e2:	ba 22 34 40 00       	mov    $0x403422,%edx
  4013e7:	be 01 00 00 00       	mov    $0x1,%esi
  4013ec:	48 8b 3d 0d 41 20 00 	mov    0x20410d(%rip),%rdi        # 605500 <stderr@@GLIBC_2.2.5>
  4013f3:	e8 c8 fb ff ff       	callq  400fc0 <__fprintf_chk@plt>
  4013f8:	b8 01 00 00 00       	mov    $0x1,%eax
  4013fd:	e9 e4 00 00 00       	jmpq   4014e6 <main+0x1d1>
  401402:	ba 10 00 00 00       	mov    $0x10,%edx
  401407:	be 00 00 00 00       	mov    $0x0,%esi
  40140c:	48 8b 3d e5 40 20 00 	mov    0x2040e5(%rip),%rdi        # 6054f8 <optarg@@GLIBC_2.2.5>
  401413:	e8 68 fb ff ff       	callq  400f80 <strtoul@plt>
  401418:	41 89 c6             	mov    %eax,%r14d
  40141b:	eb 46                	jmp    401463 <main+0x14e>
  40141d:	ba 0a 00 00 00       	mov    $0xa,%edx
  401422:	be 00 00 00 00       	mov    $0x0,%esi
  401427:	48 8b 3d ca 40 20 00 	mov    0x2040ca(%rip),%rdi        # 6054f8 <optarg@@GLIBC_2.2.5>
  40142e:	e8 9d fa ff ff       	callq  400ed0 <strtol@plt>
  401433:	41 89 c5             	mov    %eax,%r13d
  401436:	eb 2b                	jmp    401463 <main+0x14e>
  401438:	c7 05 86 40 20 00 00 	movl   $0x0,0x204086(%rip)        # 6054c8 <notify>
  40143f:	00 00 00 
  401442:	eb 1f                	jmp    401463 <main+0x14e>
  401444:	0f be d2             	movsbl %dl,%edx
  401447:	be 3f 34 40 00       	mov    $0x40343f,%esi
  40144c:	bf 01 00 00 00       	mov    $0x1,%edi
  401451:	b8 00 00 00 00       	mov    $0x0,%eax
  401456:	e8 f5 fa ff ff       	callq  400f50 <__printf_chk@plt>
  40145b:	48 8b 3b             	mov    (%rbx),%rdi
  40145e:	e8 a3 fc ff ff       	callq  401106 <usage>
  401463:	48 89 ea             	mov    %rbp,%rdx
  401466:	48 89 de             	mov    %rbx,%rsi
  401469:	44 89 e7             	mov    %r12d,%edi
  40146c:	e8 ff fa ff ff       	callq  400f70 <getopt@plt>
  401471:	89 c2                	mov    %eax,%edx
  401473:	3c ff                	cmp    $0xff,%al
  401475:	0f 85 22 ff ff ff    	jne    40139d <main+0x88>
  40147b:	be 01 00 00 00       	mov    $0x1,%esi
  401480:	44 89 ef             	mov    %r13d,%edi
  401483:	e8 08 fd ff ff       	callq  401190 <initialize_target>
  401488:	83 3d b9 40 20 00 00 	cmpl   $0x0,0x2040b9(%rip)        # 605548 <is_checker>
  40148f:	74 2a                	je     4014bb <main+0x1a6>
  401491:	44 3b 35 a8 40 20 00 	cmp    0x2040a8(%rip),%r14d        # 605540 <authkey>
  401498:	74 21                	je     4014bb <main+0x1a6>
  40149a:	44 89 f2             	mov    %r14d,%edx
  40149d:	be 78 33 40 00       	mov    $0x403378,%esi
  4014a2:	bf 01 00 00 00       	mov    $0x1,%edi
  4014a7:	b8 00 00 00 00       	mov    $0x0,%eax
  4014ac:	e8 9f fa ff ff       	callq  400f50 <__printf_chk@plt>
  4014b1:	b8 00 00 00 00       	mov    $0x0,%eax
  4014b6:	e8 8e 09 00 00       	callq  401e49 <check_fail>
  4014bb:	8b 15 83 40 20 00    	mov    0x204083(%rip),%edx        # 605544 <cookie>
  4014c1:	be 52 34 40 00       	mov    $0x403452,%esi
  4014c6:	bf 01 00 00 00       	mov    $0x1,%edi
  4014cb:	b8 00 00 00 00       	mov    $0x0,%eax
  4014d0:	e8 7b fa ff ff       	callq  400f50 <__printf_chk@plt>
  4014d5:	48 8b 3d e4 3f 20 00 	mov    0x203fe4(%rip),%rdi        # 6054c0 <buf_offset>
  4014dc:	e8 04 0e 00 00       	callq  4022e5 <launch>
  4014e1:	b8 00 00 00 00       	mov    $0x0,%eax
  4014e6:	5b                   	pop    %rbx
  4014e7:	5d                   	pop    %rbp
  4014e8:	41 5c                	pop    %r12
  4014ea:	41 5d                	pop    %r13
  4014ec:	41 5e                	pop    %r14
  4014ee:	c3                   	retq   

00000000004014ef <scramble>:
  4014ef:	48 83 ec 38          	sub    $0x38,%rsp
  4014f3:	64 48 8b 04 25 28 00 	mov    %fs:0x28,%rax
  4014fa:	00 00 
  4014fc:	48 89 44 24 28       	mov    %rax,0x28(%rsp)
  401501:	31 c0                	xor    %eax,%eax
  401503:	eb 10                	jmp    401515 <scramble+0x26>
  401505:	69 d0 53 a5 00 00    	imul   $0xa553,%eax,%edx
  40150b:	01 fa                	add    %edi,%edx
  40150d:	89 c1                	mov    %eax,%ecx
  40150f:	89 14 8c             	mov    %edx,(%rsp,%rcx,4)
  401512:	83 c0 01             	add    $0x1,%eax
  401515:	83 f8 09             	cmp    $0x9,%eax
  401518:	76 eb                	jbe    401505 <scramble+0x16>
  40151a:	8b 44 24 24          	mov    0x24(%rsp),%eax
  40151e:	69 c0 08 19 00 00    	imul   $0x1908,%eax,%eax
  401524:	89 44 24 24          	mov    %eax,0x24(%rsp)
  401528:	8b 44 24 18          	mov    0x18(%rsp),%eax
  40152c:	69 c0 a8 d9 00 00    	imul   $0xd9a8,%eax,%eax
  401532:	89 44 24 18          	mov    %eax,0x18(%rsp)
  401536:	8b 44 24 24          	mov    0x24(%rsp),%eax
  40153a:	69 c0 86 1e 00 00    	imul   $0x1e86,%eax,%eax
  401540:	89 44 24 24          	mov    %eax,0x24(%rsp)
  401544:	8b 44 24 10          	mov    0x10(%rsp),%eax
  401548:	69 c0 41 81 00 00    	imul   $0x8141,%eax,%eax
  40154e:	89 44 24 10          	mov    %eax,0x10(%rsp)
  401552:	8b 44 24 10          	mov    0x10(%rsp),%eax
  401556:	69 c0 ac 8e 00 00    	imul   $0x8eac,%eax,%eax
  40155c:	89 44 24 10          	mov    %eax,0x10(%rsp)
  401560:	8b 44 24 24          	mov    0x24(%rsp),%eax
  401564:	69 c0 20 76 00 00    	imul   $0x7620,%eax,%eax
  40156a:	89 44 24 24          	mov    %eax,0x24(%rsp)
  40156e:	8b 44 24 08          	mov    0x8(%rsp),%eax
  401572:	69 c0 54 56 00 00    	imul   $0x5654,%eax,%eax
  401578:	89 44 24 08          	mov    %eax,0x8(%rsp)
  40157c:	8b 04 24             	mov    (%rsp),%eax
  40157f:	69 c0 8e fa 00 00    	imul   $0xfa8e,%eax,%eax
  401585:	89 04 24             	mov    %eax,(%rsp)
  401588:	8b 44 24 24          	mov    0x24(%rsp),%eax
  40158c:	6b c0 5a             	imul   $0x5a,%eax,%eax
  40158f:	89 44 24 24          	mov    %eax,0x24(%rsp)
  401593:	8b 44 24 24          	mov    0x24(%rsp),%eax
  401597:	69 c0 05 25 00 00    	imul   $0x2505,%eax,%eax
  40159d:	89 44 24 24          	mov    %eax,0x24(%rsp)
  4015a1:	8b 44 24 24          	mov    0x24(%rsp),%eax
  4015a5:	69 c0 69 3a 00 00    	imul   $0x3a69,%eax,%eax
  4015ab:	89 44 24 24          	mov    %eax,0x24(%rsp)
  4015af:	8b 44 24 04          	mov    0x4(%rsp),%eax
  4015b3:	69 c0 59 9d 00 00    	imul   $0x9d59,%eax,%eax
  4015b9:	89 44 24 04          	mov    %eax,0x4(%rsp)
  4015bd:	8b 44 24 10          	mov    0x10(%rsp),%eax
  4015c1:	69 c0 39 64 00 00    	imul   $0x6439,%eax,%eax
  4015c7:	89 44 24 10          	mov    %eax,0x10(%rsp)
  4015cb:	8b 44 24 20          	mov    0x20(%rsp),%eax
  4015cf:	69 c0 68 7c 00 00    	imul   $0x7c68,%eax,%eax
  4015d5:	89 44 24 20          	mov    %eax,0x20(%rsp)
  4015d9:	8b 04 24             	mov    (%rsp),%eax
  4015dc:	69 c0 6f 67 00 00    	imul   $0x676f,%eax,%eax
  4015e2:	89 04 24             	mov    %eax,(%rsp)
  4015e5:	8b 04 24             	mov    (%rsp),%eax
  4015e8:	69 c0 73 ad 00 00    	imul   $0xad73,%eax,%eax
  4015ee:	89 04 24             	mov    %eax,(%rsp)
  4015f1:	8b 44 24 0c          	mov    0xc(%rsp),%eax
  4015f5:	69 c0 47 dd 00 00    	imul   $0xdd47,%eax,%eax
  4015fb:	89 44 24 0c          	mov    %eax,0xc(%rsp)
  4015ff:	8b 44 24 04          	mov    0x4(%rsp),%eax
  401603:	69 c0 ee 49 00 00    	imul   $0x49ee,%eax,%eax
  401609:	89 44 24 04          	mov    %eax,0x4(%rsp)
  40160d:	8b 44 24 1c          	mov    0x1c(%rsp),%eax
  401611:	69 c0 12 64 00 00    	imul   $0x6412,%eax,%eax
  401617:	89 44 24 1c          	mov    %eax,0x1c(%rsp)
  40161b:	8b 44 24 10          	mov    0x10(%rsp),%eax
  40161f:	69 c0 4a 2f 00 00    	imul   $0x2f4a,%eax,%eax
  401625:	89 44 24 10          	mov    %eax,0x10(%rsp)
  401629:	8b 44 24 08          	mov    0x8(%rsp),%eax
  40162d:	69 c0 df dc 00 00    	imul   $0xdcdf,%eax,%eax
  401633:	89 44 24 08          	mov    %eax,0x8(%rsp)
  401637:	8b 44 24 04          	mov    0x4(%rsp),%eax
  40163b:	69 c0 76 30 00 00    	imul   $0x3076,%eax,%eax
  401641:	89 44 24 04          	mov    %eax,0x4(%rsp)
  401645:	8b 44 24 18          	mov    0x18(%rsp),%eax
  401649:	69 c0 0a 9b 00 00    	imul   $0x9b0a,%eax,%eax
  40164f:	89 44 24 18          	mov    %eax,0x18(%rsp)
  401653:	8b 44 24 20          	mov    0x20(%rsp),%eax
  401657:	69 c0 87 8d 00 00    	imul   $0x8d87,%eax,%eax
  40165d:	89 44 24 20          	mov    %eax,0x20(%rsp)
  401661:	8b 04 24             	mov    (%rsp),%eax
  401664:	69 c0 78 56 00 00    	imul   $0x5678,%eax,%eax
  40166a:	89 04 24             	mov    %eax,(%rsp)
  40166d:	8b 44 24 04          	mov    0x4(%rsp),%eax
  401671:	69 c0 c5 db 00 00    	imul   $0xdbc5,%eax,%eax
  401677:	89 44 24 04          	mov    %eax,0x4(%rsp)
  40167b:	8b 44 24 20          	mov    0x20(%rsp),%eax
  40167f:	69 c0 53 1a 00 00    	imul   $0x1a53,%eax,%eax
  401685:	89 44 24 20          	mov    %eax,0x20(%rsp)
  401689:	8b 44 24 20          	mov    0x20(%rsp),%eax
  40168d:	69 c0 a8 64 00 00    	imul   $0x64a8,%eax,%eax
  401693:	89 44 24 20          	mov    %eax,0x20(%rsp)
  401697:	8b 44 24 24          	mov    0x24(%rsp),%eax
  40169b:	69 c0 04 ae 00 00    	imul   $0xae04,%eax,%eax
  4016a1:	89 44 24 24          	mov    %eax,0x24(%rsp)
  4016a5:	8b 04 24             	mov    (%rsp),%eax
  4016a8:	69 c0 ac 86 00 00    	imul   $0x86ac,%eax,%eax
  4016ae:	89 04 24             	mov    %eax,(%rsp)
  4016b1:	8b 44 24 1c          	mov    0x1c(%rsp),%eax
  4016b5:	69 c0 95 28 00 00    	imul   $0x2895,%eax,%eax
  4016bb:	89 44 24 1c          	mov    %eax,0x1c(%rsp)
  4016bf:	8b 44 24 08          	mov    0x8(%rsp),%eax
  4016c3:	69 c0 ec 95 00 00    	imul   $0x95ec,%eax,%eax
  4016c9:	89 44 24 08          	mov    %eax,0x8(%rsp)
  4016cd:	8b 04 24             	mov    (%rsp),%eax
  4016d0:	69 c0 3a bb 00 00    	imul   $0xbb3a,%eax,%eax
  4016d6:	89 04 24             	mov    %eax,(%rsp)
  4016d9:	8b 44 24 18          	mov    0x18(%rsp),%eax
  4016dd:	69 c0 aa 01 00 00    	imul   $0x1aa,%eax,%eax
  4016e3:	89 44 24 18          	mov    %eax,0x18(%rsp)
  4016e7:	8b 04 24             	mov    (%rsp),%eax
  4016ea:	69 c0 09 ab 00 00    	imul   $0xab09,%eax,%eax
  4016f0:	89 04 24             	mov    %eax,(%rsp)
  4016f3:	8b 44 24 20          	mov    0x20(%rsp),%eax
  4016f7:	69 c0 0a 12 00 00    	imul   $0x120a,%eax,%eax
  4016fd:	89 44 24 20          	mov    %eax,0x20(%rsp)
  401701:	8b 44 24 18          	mov    0x18(%rsp),%eax
  401705:	69 c0 5e d6 00 00    	imul   $0xd65e,%eax,%eax
  40170b:	89 44 24 18          	mov    %eax,0x18(%rsp)
  40170f:	8b 44 24 08          	mov    0x8(%rsp),%eax
  401713:	69 c0 1b bb 00 00    	imul   $0xbb1b,%eax,%eax
  401719:	89 44 24 08          	mov    %eax,0x8(%rsp)
  40171d:	8b 44 24 10          	mov    0x10(%rsp),%eax
  401721:	69 c0 85 6d 00 00    	imul   $0x6d85,%eax,%eax
  401727:	89 44 24 10          	mov    %eax,0x10(%rsp)
  40172b:	8b 44 24 0c          	mov    0xc(%rsp),%eax
  40172f:	69 c0 cc 0c 00 00    	imul   $0xccc,%eax,%eax
  401735:	89 44 24 0c          	mov    %eax,0xc(%rsp)
  401739:	8b 44 24 04          	mov    0x4(%rsp),%eax
  40173d:	69 c0 2e fb 00 00    	imul   $0xfb2e,%eax,%eax
  401743:	89 44 24 04          	mov    %eax,0x4(%rsp)
  401747:	8b 44 24 1c          	mov    0x1c(%rsp),%eax
  40174b:	69 c0 de 54 00 00    	imul   $0x54de,%eax,%eax
  401751:	89 44 24 1c          	mov    %eax,0x1c(%rsp)
  401755:	8b 44 24 18          	mov    0x18(%rsp),%eax
  401759:	69 c0 af 61 00 00    	imul   $0x61af,%eax,%eax
  40175f:	89 44 24 18          	mov    %eax,0x18(%rsp)
  401763:	8b 44 24 18          	mov    0x18(%rsp),%eax
  401767:	69 c0 0d 94 00 00    	imul   $0x940d,%eax,%eax
  40176d:	89 44 24 18          	mov    %eax,0x18(%rsp)
  401771:	8b 44 24 0c          	mov    0xc(%rsp),%eax
  401775:	69 c0 97 9a 00 00    	imul   $0x9a97,%eax,%eax
  40177b:	89 44 24 0c          	mov    %eax,0xc(%rsp)
  40177f:	8b 44 24 20          	mov    0x20(%rsp),%eax
  401783:	69 c0 28 25 00 00    	imul   $0x2528,%eax,%eax
  401789:	89 44 24 20          	mov    %eax,0x20(%rsp)
  40178d:	8b 04 24             	mov    (%rsp),%eax
  401790:	69 c0 d8 4e 00 00    	imul   $0x4ed8,%eax,%eax
  401796:	89 04 24             	mov    %eax,(%rsp)
  401799:	8b 44 24 18          	mov    0x18(%rsp),%eax
  40179d:	69 c0 09 c9 00 00    	imul   $0xc909,%eax,%eax
  4017a3:	89 44 24 18          	mov    %eax,0x18(%rsp)
  4017a7:	8b 44 24 14          	mov    0x14(%rsp),%eax
  4017ab:	69 c0 ee 9a 00 00    	imul   $0x9aee,%eax,%eax
  4017b1:	89 44 24 14          	mov    %eax,0x14(%rsp)
  4017b5:	8b 44 24 1c          	mov    0x1c(%rsp),%eax
  4017b9:	69 c0 5e 29 00 00    	imul   $0x295e,%eax,%eax
  4017bf:	89 44 24 1c          	mov    %eax,0x1c(%rsp)
  4017c3:	8b 44 24 10          	mov    0x10(%rsp),%eax
  4017c7:	69 c0 a7 fb 00 00    	imul   $0xfba7,%eax,%eax
  4017cd:	89 44 24 10          	mov    %eax,0x10(%rsp)
  4017d1:	8b 44 24 0c          	mov    0xc(%rsp),%eax
  4017d5:	69 c0 df cd 00 00    	imul   $0xcddf,%eax,%eax
  4017db:	89 44 24 0c          	mov    %eax,0xc(%rsp)
  4017df:	8b 44 24 20          	mov    0x20(%rsp),%eax
  4017e3:	69 c0 e9 7d 00 00    	imul   $0x7de9,%eax,%eax
  4017e9:	89 44 24 20          	mov    %eax,0x20(%rsp)
  4017ed:	8b 04 24             	mov    (%rsp),%eax
  4017f0:	69 c0 6d 43 00 00    	imul   $0x436d,%eax,%eax
  4017f6:	89 04 24             	mov    %eax,(%rsp)
  4017f9:	8b 44 24 1c          	mov    0x1c(%rsp),%eax
  4017fd:	69 c0 9c d1 00 00    	imul   $0xd19c,%eax,%eax
  401803:	89 44 24 1c          	mov    %eax,0x1c(%rsp)
  401807:	8b 04 24             	mov    (%rsp),%eax
  40180a:	69 c0 6b af 00 00    	imul   $0xaf6b,%eax,%eax
  401810:	89 04 24             	mov    %eax,(%rsp)
  401813:	8b 44 24 1c          	mov    0x1c(%rsp),%eax
  401817:	69 c0 ca 38 00 00    	imul   $0x38ca,%eax,%eax
  40181d:	89 44 24 1c          	mov    %eax,0x1c(%rsp)
  401821:	8b 44 24 04          	mov    0x4(%rsp),%eax
  401825:	69 c0 4b e2 00 00    	imul   $0xe24b,%eax,%eax
  40182b:	89 44 24 04          	mov    %eax,0x4(%rsp)
  40182f:	8b 44 24 10          	mov    0x10(%rsp),%eax
  401833:	69 c0 cf bd 00 00    	imul   $0xbdcf,%eax,%eax
  401839:	89 44 24 10          	mov    %eax,0x10(%rsp)
  40183d:	8b 44 24 04          	mov    0x4(%rsp),%eax
  401841:	69 c0 2d aa 00 00    	imul   $0xaa2d,%eax,%eax
  401847:	89 44 24 04          	mov    %eax,0x4(%rsp)
  40184b:	8b 44 24 1c          	mov    0x1c(%rsp),%eax
  40184f:	69 c0 11 91 00 00    	imul   $0x9111,%eax,%eax
  401855:	89 44 24 1c          	mov    %eax,0x1c(%rsp)
  401859:	8b 44 24 0c          	mov    0xc(%rsp),%eax
  40185d:	69 c0 93 1b 00 00    	imul   $0x1b93,%eax,%eax
  401863:	89 44 24 0c          	mov    %eax,0xc(%rsp)
  401867:	8b 04 24             	mov    (%rsp),%eax
  40186a:	69 c0 69 8a 00 00    	imul   $0x8a69,%eax,%eax
  401870:	89 04 24             	mov    %eax,(%rsp)
  401873:	8b 44 24 24          	mov    0x24(%rsp),%eax
  401877:	69 c0 fb e9 00 00    	imul   $0xe9fb,%eax,%eax
  40187d:	89 44 24 24          	mov    %eax,0x24(%rsp)
  401881:	8b 44 24 0c          	mov    0xc(%rsp),%eax
  401885:	69 c0 4f af 00 00    	imul   $0xaf4f,%eax,%eax
  40188b:	89 44 24 0c          	mov    %eax,0xc(%rsp)
  40188f:	8b 44 24 10          	mov    0x10(%rsp),%eax
  401893:	69 c0 4e 6b 00 00    	imul   $0x6b4e,%eax,%eax
  401899:	89 44 24 10          	mov    %eax,0x10(%rsp)
  40189d:	8b 44 24 14          	mov    0x14(%rsp),%eax
  4018a1:	69 c0 c1 4e 00 00    	imul   $0x4ec1,%eax,%eax
  4018a7:	89 44 24 14          	mov    %eax,0x14(%rsp)
  4018ab:	8b 44 24 08          	mov    0x8(%rsp),%eax
  4018af:	69 c0 fb 7c 00 00    	imul   $0x7cfb,%eax,%eax
  4018b5:	89 44 24 08          	mov    %eax,0x8(%rsp)
  4018b9:	8b 44 24 10          	mov    0x10(%rsp),%eax
  4018bd:	69 c0 27 c2 00 00    	imul   $0xc227,%eax,%eax
  4018c3:	89 44 24 10          	mov    %eax,0x10(%rsp)
  4018c7:	8b 44 24 24          	mov    0x24(%rsp),%eax
  4018cb:	69 c0 18 b8 00 00    	imul   $0xb818,%eax,%eax
  4018d1:	89 44 24 24          	mov    %eax,0x24(%rsp)
  4018d5:	8b 44 24 1c          	mov    0x1c(%rsp),%eax
  4018d9:	69 c0 a1 10 00 00    	imul   $0x10a1,%eax,%eax
  4018df:	89 44 24 1c          	mov    %eax,0x1c(%rsp)
  4018e3:	8b 44 24 0c          	mov    0xc(%rsp),%eax
  4018e7:	69 c0 8d 60 00 00    	imul   $0x608d,%eax,%eax
  4018ed:	89 44 24 0c          	mov    %eax,0xc(%rsp)
  4018f1:	8b 44 24 20          	mov    0x20(%rsp),%eax
  4018f5:	69 c0 cc 6b 00 00    	imul   $0x6bcc,%eax,%eax
  4018fb:	89 44 24 20          	mov    %eax,0x20(%rsp)
  4018ff:	8b 44 24 20          	mov    0x20(%rsp),%eax
  401903:	69 c0 e5 e3 00 00    	imul   $0xe3e5,%eax,%eax
  401909:	89 44 24 20          	mov    %eax,0x20(%rsp)
  40190d:	8b 44 24 18          	mov    0x18(%rsp),%eax
  401911:	69 c0 30 b9 00 00    	imul   $0xb930,%eax,%eax
  401917:	89 44 24 18          	mov    %eax,0x18(%rsp)
  40191b:	8b 44 24 0c          	mov    0xc(%rsp),%eax
  40191f:	69 c0 03 82 00 00    	imul   $0x8203,%eax,%eax
  401925:	89 44 24 0c          	mov    %eax,0xc(%rsp)
  401929:	8b 04 24             	mov    (%rsp),%eax
  40192c:	69 c0 68 5d 00 00    	imul   $0x5d68,%eax,%eax
  401932:	89 04 24             	mov    %eax,(%rsp)
  401935:	8b 44 24 14          	mov    0x14(%rsp),%eax
  401939:	69 c0 2a 2a 00 00    	imul   $0x2a2a,%eax,%eax
  40193f:	89 44 24 14          	mov    %eax,0x14(%rsp)
  401943:	8b 44 24 14          	mov    0x14(%rsp),%eax
  401947:	69 c0 33 82 00 00    	imul   $0x8233,%eax,%eax
  40194d:	89 44 24 14          	mov    %eax,0x14(%rsp)
  401951:	8b 44 24 08          	mov    0x8(%rsp),%eax
  401955:	69 c0 29 0d 00 00    	imul   $0xd29,%eax,%eax
  40195b:	89 44 24 08          	mov    %eax,0x8(%rsp)
  40195f:	8b 44 24 0c          	mov    0xc(%rsp),%eax
  401963:	69 c0 7e 27 00 00    	imul   $0x277e,%eax,%eax
  401969:	89 44 24 0c          	mov    %eax,0xc(%rsp)
  40196d:	8b 44 24 20          	mov    0x20(%rsp),%eax
  401971:	69 c0 79 dc 00 00    	imul   $0xdc79,%eax,%eax
  401977:	89 44 24 20          	mov    %eax,0x20(%rsp)
  40197b:	ba 00 00 00 00       	mov    $0x0,%edx
  401980:	b8 00 00 00 00       	mov    $0x0,%eax
  401985:	eb 0a                	jmp    401991 <scramble+0x4a2>
  401987:	89 d1                	mov    %edx,%ecx
  401989:	8b 0c 8c             	mov    (%rsp,%rcx,4),%ecx
  40198c:	01 c8                	add    %ecx,%eax
  40198e:	83 c2 01             	add    $0x1,%edx
  401991:	83 fa 09             	cmp    $0x9,%edx
  401994:	76 f1                	jbe    401987 <scramble+0x498>
  401996:	48 8b 74 24 28       	mov    0x28(%rsp),%rsi
  40199b:	64 48 33 34 25 28 00 	xor    %fs:0x28,%rsi
  4019a2:	00 00 
  4019a4:	74 05                	je     4019ab <scramble+0x4bc>
  4019a6:	e8 75 f4 ff ff       	callq  400e20 <__stack_chk_fail@plt>
  4019ab:	48 83 c4 38          	add    $0x38,%rsp
  4019af:	c3                   	retq   

00000000004019b0 <getbuf>:
  4019b0:	48 83 ec 78          	sub    $0x78,%rsp
  4019b4:	48 89 e7             	mov    %rsp,%rdi
  4019b7:	e8 c2 04 00 00       	callq  401e7e <Gets>
  4019bc:	b8 01 00 00 00       	mov    $0x1,%eax
  4019c1:	48 83 c4 78          	add    $0x78,%rsp
  4019c5:	c3                   	retq   

00000000004019c6 <touch1>:
  4019c6:	48 83 ec 08          	sub    $0x8,%rsp
  4019ca:	bf 04 00 00 00       	mov    $0x4,%edi
  4019cf:	e8 bc f4 ff ff       	callq  400e90 <srand@plt>
  4019d4:	e8 f7 f5 ff ff       	callq  400fd0 <rand@plt>
  4019d9:	89 c1                	mov    %eax,%ecx
  4019db:	ba e9 a2 8b 2e       	mov    $0x2e8ba2e9,%edx
  4019e0:	f7 ea                	imul   %edx
  4019e2:	d1 fa                	sar    %edx
  4019e4:	89 c8                	mov    %ecx,%eax
  4019e6:	c1 f8 1f             	sar    $0x1f,%eax
  4019e9:	29 c2                	sub    %eax,%edx
  4019eb:	8d 04 92             	lea    (%rdx,%rdx,4),%eax
  4019ee:	8d 04 42             	lea    (%rdx,%rax,2),%eax
  4019f1:	29 c1                	sub    %eax,%ecx
  4019f3:	83 f9 02             	cmp    $0x2,%ecx
  4019f6:	74 20                	je     401a18 <touch1+0x52>
  4019f8:	c7 05 3a 3b 20 00 01 	movl   $0x1,0x203b3a(%rip)        # 60553c <vlevel>
  4019ff:	00 00 00 
  401a02:	bf eb 37 40 00       	mov    $0x4037eb,%edi
  401a07:	e8 f4 f3 ff ff       	callq  400e00 <puts@plt>
  401a0c:	bf 01 00 00 00       	mov    $0x1,%edi
  401a11:	e8 a8 06 00 00       	callq  4020be <validate>
  401a16:	eb 14                	jmp    401a2c <touch1+0x66>
  401a18:	bf 18 38 40 00       	mov    $0x403818,%edi
  401a1d:	e8 de f3 ff ff       	callq  400e00 <puts@plt>
  401a22:	bf 01 00 00 00       	mov    $0x1,%edi
  401a27:	e8 54 07 00 00       	callq  402180 <fail>
  401a2c:	bf 00 00 00 00       	mov    $0x0,%edi
  401a31:	e8 6a f5 ff ff       	callq  400fa0 <exit@plt>

0000000000401a36 <touch2>:
  401a36:	48 83 ec 08          	sub    $0x8,%rsp
  401a3a:	c7 05 f8 3a 20 00 02 	movl   $0x2,0x203af8(%rip)        # 60553c <vlevel>
  401a41:	00 00 00 
  401a44:	8b 05 fa 3a 20 00    	mov    0x203afa(%rip),%eax        # 605544 <cookie>
  401a4a:	39 f8                	cmp    %edi,%eax
  401a4c:	75 2b                	jne    401a79 <touch2+0x43>
  401a4e:	6b c0 03             	imul   $0x3,%eax,%eax
  401a51:	39 f0                	cmp    %esi,%eax
  401a53:	75 24                	jne    401a79 <touch2+0x43>
  401a55:	89 f1                	mov    %esi,%ecx
  401a57:	89 fa                	mov    %edi,%edx
  401a59:	be 60 38 40 00       	mov    $0x403860,%esi
  401a5e:	bf 01 00 00 00       	mov    $0x1,%edi
  401a63:	b8 00 00 00 00       	mov    $0x0,%eax
  401a68:	e8 e3 f4 ff ff       	callq  400f50 <__printf_chk@plt>
  401a6d:	bf 02 00 00 00       	mov    $0x2,%edi
  401a72:	e8 47 06 00 00       	callq  4020be <validate>
  401a77:	eb 22                	jmp    401a9b <touch2+0x65>
  401a79:	89 f1                	mov    %esi,%ecx
  401a7b:	89 fa                	mov    %edi,%edx
  401a7d:	be 90 38 40 00       	mov    $0x403890,%esi
  401a82:	bf 01 00 00 00       	mov    $0x1,%edi
  401a87:	b8 00 00 00 00       	mov    $0x0,%eax
  401a8c:	e8 bf f4 ff ff       	callq  400f50 <__printf_chk@plt>
  401a91:	bf 02 00 00 00       	mov    $0x2,%edi
  401a96:	e8 e5 06 00 00       	callq  402180 <fail>
  401a9b:	bf 00 00 00 00       	mov    $0x0,%edi
  401aa0:	e8 fb f4 ff ff       	callq  400fa0 <exit@plt>

0000000000401aa5 <hexmatch>:
  401aa5:	41 54                	push   %r12
  401aa7:	55                   	push   %rbp
  401aa8:	53                   	push   %rbx
  401aa9:	48 83 c4 80          	add    $0xffffffffffffff80,%rsp
  401aad:	64 48 8b 04 25 28 00 	mov    %fs:0x28,%rax
  401ab4:	00 00 
  401ab6:	48 89 44 24 78       	mov    %rax,0x78(%rsp)
  401abb:	31 c0                	xor    %eax,%eax
  401abd:	48 85 f6             	test   %rsi,%rsi
  401ac0:	74 6e                	je     401b30 <hexmatch+0x8b>
  401ac2:	89 fd                	mov    %edi,%ebp
  401ac4:	48 89 f3             	mov    %rsi,%rbx
  401ac7:	e8 34 f4 ff ff       	callq  400f00 <random@plt>
  401acc:	48 89 c1             	mov    %rax,%rcx
  401acf:	48 ba 05 79 4a 90 a7 	movabs $0x4a7904a7904a7905,%rdx
  401ad6:	04 79 4a 
  401ad9:	48 f7 ea             	imul   %rdx
  401adc:	48 c1 fa 05          	sar    $0x5,%rdx
  401ae0:	48 89 c8             	mov    %rcx,%rax
  401ae3:	48 c1 f8 3f          	sar    $0x3f,%rax
  401ae7:	48 29 c2             	sub    %rax,%rdx
  401aea:	48 6b d2 6e          	imul   $0x6e,%rdx,%rdx
  401aee:	48 29 d1             	sub    %rdx,%rcx
  401af1:	4c 8d 24 0c          	lea    (%rsp,%rcx,1),%r12
  401af5:	41 89 e8             	mov    %ebp,%r8d
  401af8:	b9 08 38 40 00       	mov    $0x403808,%ecx
  401afd:	48 c7 c2 ff ff ff ff 	mov    $0xffffffffffffffff,%rdx
  401b04:	be 01 00 00 00       	mov    $0x1,%esi
  401b09:	4c 89 e7             	mov    %r12,%rdi
  401b0c:	b8 00 00 00 00       	mov    $0x0,%eax
  401b11:	e8 ca f4 ff ff       	callq  400fe0 <__sprintf_chk@plt>
  401b16:	ba 09 00 00 00       	mov    $0x9,%edx
  401b1b:	4c 89 e6             	mov    %r12,%rsi
  401b1e:	48 89 df             	mov    %rbx,%rdi
  401b21:	e8 ba f2 ff ff       	callq  400de0 <strncmp@plt>
  401b26:	85 c0                	test   %eax,%eax
  401b28:	0f 94 c0             	sete   %al
  401b2b:	0f b6 c0             	movzbl %al,%eax
  401b2e:	eb 05                	jmp    401b35 <hexmatch+0x90>
  401b30:	b8 00 00 00 00       	mov    $0x0,%eax
  401b35:	48 8b 74 24 78       	mov    0x78(%rsp),%rsi
  401b3a:	64 48 33 34 25 28 00 	xor    %fs:0x28,%rsi
  401b41:	00 00 
  401b43:	74 05                	je     401b4a <hexmatch+0xa5>
  401b45:	e8 d6 f2 ff ff       	callq  400e20 <__stack_chk_fail@plt>
  401b4a:	48 83 ec 80          	sub    $0xffffffffffffff80,%rsp
  401b4e:	5b                   	pop    %rbx
  401b4f:	5d                   	pop    %rbp
  401b50:	41 5c                	pop    %r12
  401b52:	c3                   	retq   

0000000000401b53 <checkmult>:
  401b53:	41 54                	push   %r12
  401b55:	55                   	push   %rbp
  401b56:	53                   	push   %rbx
  401b57:	48 83 ec 50          	sub    $0x50,%rsp
  401b5b:	64 48 8b 04 25 28 00 	mov    %fs:0x28,%rax
  401b62:	00 00 
  401b64:	48 89 44 24 48       	mov    %rax,0x48(%rsp)
  401b69:	31 c0                	xor    %eax,%eax
  401b6b:	48 85 f6             	test   %rsi,%rsi
  401b6e:	0f 84 96 00 00 00    	je     401c0a <checkmult+0xb7>
  401b74:	41 89 fc             	mov    %edi,%r12d
  401b77:	48 89 f5             	mov    %rsi,%rbp
  401b7a:	e8 81 f3 ff ff       	callq  400f00 <random@plt>
  401b7f:	48 89 c1             	mov    %rax,%rcx
  401b82:	48 ba 89 88 88 88 88 	movabs $0x8888888888888889,%rdx
  401b89:	88 88 88 
  401b8c:	48 f7 ea             	imul   %rdx
  401b8f:	48 01 ca             	add    %rcx,%rdx
  401b92:	48 c1 fa 05          	sar    $0x5,%rdx
  401b96:	48 89 c8             	mov    %rcx,%rax
  401b99:	48 c1 f8 3f          	sar    $0x3f,%rax
  401b9d:	48 29 c2             	sub    %rax,%rdx
  401ba0:	48 8d 04 95 00 00 00 	lea    0x0(,%rdx,4),%rax
  401ba7:	00 
  401ba8:	48 c1 e2 06          	shl    $0x6,%rdx
  401bac:	48 29 c2             	sub    %rax,%rdx
  401baf:	48 29 d1             	sub    %rdx,%rcx
  401bb2:	48 8d 1c 0c          	lea    (%rsp,%rcx,1),%rbx
  401bb6:	45 89 e0             	mov    %r12d,%r8d
  401bb9:	b9 08 38 40 00       	mov    $0x403808,%ecx
  401bbe:	48 c7 c2 ff ff ff ff 	mov    $0xffffffffffffffff,%rdx
  401bc5:	be 01 00 00 00       	mov    $0x1,%esi
  401bca:	48 89 df             	mov    %rbx,%rdi
  401bcd:	b8 00 00 00 00       	mov    $0x0,%eax
  401bd2:	e8 09 f4 ff ff       	callq  400fe0 <__sprintf_chk@plt>
  401bd7:	ba 00 00 00 00       	mov    $0x0,%edx
  401bdc:	eb 20                	jmp    401bfe <checkmult+0xab>
  401bde:	48 63 ca             	movslq %edx,%rcx
  401be1:	b8 07 00 00 00       	mov    $0x7,%eax
  401be6:	29 d0                	sub    %edx,%eax
  401be8:	48 98                	cltq   
  401bea:	0f be 34 0b          	movsbl (%rbx,%rcx,1),%esi
  401bee:	0f be 04 03          	movsbl (%rbx,%rax,1),%eax
  401bf2:	0f af c6             	imul   %esi,%eax
  401bf5:	39 44 8d 00          	cmp    %eax,0x0(%rbp,%rcx,4)
  401bf9:	75 16                	jne    401c11 <checkmult+0xbe>
  401bfb:	83 c2 01             	add    $0x1,%edx
  401bfe:	83 fa 07             	cmp    $0x7,%edx
  401c01:	7e db                	jle    401bde <checkmult+0x8b>
  401c03:	b8 01 00 00 00       	mov    $0x1,%eax
  401c08:	eb 0c                	jmp    401c16 <checkmult+0xc3>
  401c0a:	b8 00 00 00 00       	mov    $0x0,%eax
  401c0f:	eb 05                	jmp    401c16 <checkmult+0xc3>
  401c11:	b8 00 00 00 00       	mov    $0x0,%eax
  401c16:	48 8b 7c 24 48       	mov    0x48(%rsp),%rdi
  401c1b:	64 48 33 3c 25 28 00 	xor    %fs:0x28,%rdi
  401c22:	00 00 
  401c24:	74 05                	je     401c2b <checkmult+0xd8>
  401c26:	e8 f5 f1 ff ff       	callq  400e20 <__stack_chk_fail@plt>
  401c2b:	48 83 c4 50          	add    $0x50,%rsp
  401c2f:	5b                   	pop    %rbx
  401c30:	5d                   	pop    %rbp
  401c31:	41 5c                	pop    %r12
  401c33:	c3                   	retq   

0000000000401c34 <touch3>:
  401c34:	55                   	push   %rbp
  401c35:	53                   	push   %rbx
  401c36:	48 83 ec 08          	sub    $0x8,%rsp
  401c3a:	48 89 fb             	mov    %rdi,%rbx
  401c3d:	48 89 f5             	mov    %rsi,%rbp
  401c40:	c7 05 f2 38 20 00 03 	movl   $0x3,0x2038f2(%rip)        # 60553c <vlevel>
  401c47:	00 00 00 
  401c4a:	48 89 fe             	mov    %rdi,%rsi
  401c4d:	8b 3d f1 38 20 00    	mov    0x2038f1(%rip),%edi        # 605544 <cookie>
  401c53:	e8 4d fe ff ff       	callq  401aa5 <hexmatch>
  401c58:	85 c0                	test   %eax,%eax
  401c5a:	74 28                	je     401c84 <touch3+0x50>
  401c5c:	48 89 ee             	mov    %rbp,%rsi
  401c5f:	8b 3d df 38 20 00    	mov    0x2038df(%rip),%edi        # 605544 <cookie>
  401c65:	e8 e9 fe ff ff       	callq  401b53 <checkmult>
  401c6a:	85 c0                	test   %eax,%eax
  401c6c:	74 16                	je     401c84 <touch3+0x50>
  401c6e:	bf c0 38 40 00       	mov    $0x4038c0,%edi
  401c73:	e8 88 f1 ff ff       	callq  400e00 <puts@plt>
  401c78:	bf 03 00 00 00       	mov    $0x3,%edi
  401c7d:	e8 3c 04 00 00       	callq  4020be <validate>
  401c82:	eb 7a                	jmp    401cfe <touch3+0xca>
  401c84:	48 89 e9             	mov    %rbp,%rcx
  401c87:	48 89 da             	mov    %rbx,%rdx
  401c8a:	be f8 38 40 00       	mov    $0x4038f8,%esi
  401c8f:	bf 01 00 00 00       	mov    $0x1,%edi
  401c94:	b8 00 00 00 00       	mov    $0x0,%eax
  401c99:	e8 b2 f2 ff ff       	callq  400f50 <__printf_chk@plt>
  401c9e:	bf 58 39 40 00       	mov    $0x403958,%edi
  401ca3:	e8 58 f1 ff ff       	callq  400e00 <puts@plt>
  401ca8:	48 8b 3d 31 38 20 00 	mov    0x203831(%rip),%rdi        # 6054e0 <stdout@@GLIBC_2.2.5>
  401caf:	e8 5c f2 ff ff       	callq  400f10 <fflush@plt>
  401cb4:	bb 00 00 00 00       	mov    $0x0,%ebx
  401cb9:	eb 2a                	jmp    401ce5 <touch3+0xb1>
  401cbb:	48 63 c3             	movslq %ebx,%rax
  401cbe:	8b 54 85 00          	mov    0x0(%rbp,%rax,4),%edx
  401cc2:	be 0d 38 40 00       	mov    $0x40380d,%esi
  401cc7:	bf 01 00 00 00       	mov    $0x1,%edi
  401ccc:	b8 00 00 00 00       	mov    $0x0,%eax
  401cd1:	e8 7a f2 ff ff       	callq  400f50 <__printf_chk@plt>
  401cd6:	48 8b 3d 03 38 20 00 	mov    0x203803(%rip),%rdi        # 6054e0 <stdout@@GLIBC_2.2.5>
  401cdd:	e8 2e f2 ff ff       	callq  400f10 <fflush@plt>
  401ce2:	83 c3 01             	add    $0x1,%ebx
  401ce5:	83 fb 07             	cmp    $0x7,%ebx
  401ce8:	7e d1                	jle    401cbb <touch3+0x87>
  401cea:	bf 0a 00 00 00       	mov    $0xa,%edi
  401cef:	e8 ac f0 ff ff       	callq  400da0 <putchar@plt>
  401cf4:	bf 03 00 00 00       	mov    $0x3,%edi
  401cf9:	e8 82 04 00 00       	callq  402180 <fail>
  401cfe:	bf 00 00 00 00       	mov    $0x0,%edi
  401d03:	e8 98 f2 ff ff       	callq  400fa0 <exit@plt>

0000000000401d08 <test>:
  401d08:	48 83 ec 08          	sub    $0x8,%rsp
  401d0c:	b8 00 00 00 00       	mov    $0x0,%eax
  401d11:	e8 9a fc ff ff       	callq  4019b0 <getbuf>
  401d16:	89 c2                	mov    %eax,%edx
  401d18:	be 88 39 40 00       	mov    $0x403988,%esi
  401d1d:	bf 01 00 00 00       	mov    $0x1,%edi
  401d22:	b8 00 00 00 00       	mov    $0x0,%eax
  401d27:	e8 24 f2 ff ff       	callq  400f50 <__printf_chk@plt>
  401d2c:	48 83 c4 08          	add    $0x8,%rsp
  401d30:	c3                   	retq   

0000000000401d31 <start_farm>:
  401d31:	b8 01 00 00 00       	mov    $0x1,%eax
  401d36:	c3                   	retq   

0000000000401d37 <setval_492>:
  401d37:	c7 07 c1 5b 90 c3    	movl   $0xc3905bc1,(%rdi)
  401d3d:	c3                   	retq   

0000000000401d3e <addval_143>:
  401d3e:	8d 87 48 89 ce 94    	lea    -0x6b3176b8(%rdi),%eax
  401d44:	c3                   	retq   

0000000000401d45 <addval_408>:
  401d45:	8d 87 48 01 da 90    	lea    -0x6f25feb8(%rdi),%eax
  401d4b:	c3                   	retq   

0000000000401d4c <setval_343>:
  401d4c:	c7 07 48 89 df c3    	movl   $0xc3df8948,(%rdi)
  401d52:	c3                   	retq   

0000000000401d53 <setval_387>:
  401d53:	c7 07 48 05 da c3    	movl   $0xc3da0548,(%rdi)
  401d59:	c3                   	retq   

0000000000401d5a <addval_392>:
  401d5a:	8d 87 48 89 d1 c3    	lea    -0x3c2e76b8(%rdi),%eax
  401d60:	c3                   	retq   

0000000000401d61 <addval_441>:
  401d61:	8d 87 48 89 ce 90    	lea    -0x6f3176b8(%rdi),%eax
  401d67:	c3                   	retq   

0000000000401d68 <getval_108>:
  401d68:	b8 f3 48 89 ce       	mov    $0xce8948f3,%eax
  401d6d:	c3                   	retq   

0000000000401d6e <getval_263>:
  401d6e:	b8 4a 89 d1 c3       	mov    $0xc3d1894a,%eax
  401d73:	c3                   	retq   

0000000000401d74 <addval_308>:
  401d74:	8d 87 c7 5b 90 c3    	lea    -0x3c6fa439(%rdi),%eax
  401d7a:	c3                   	retq   

0000000000401d7b <addval_183>:
  401d7b:	8d 87 08 dc 5a 90    	lea    -0x6fa523f8(%rdi),%eax
  401d81:	c3                   	retq   

0000000000401d82 <addval_430>:
  401d82:	8d 87 35 17 5a c2    	lea    -0x3da5e8cb(%rdi),%eax
  401d88:	c3                   	retq   

0000000000401d89 <addval_355>:
  401d89:	8d 87 51 48 89 df    	lea    -0x2076b7af(%rdi),%eax
  401d8f:	c3                   	retq   

0000000000401d90 <addval_350>:
  401d90:	8d 87 48 89 df 91    	lea    -0x6e2076b8(%rdi),%eax
  401d96:	c3                   	retq   

0000000000401d97 <getval_331>:
  401d97:	b8 48 89 ce 91       	mov    $0x91ce8948,%eax
  401d9c:	c3                   	retq   

0000000000401d9d <addval_221>:
  401d9d:	8d 87 48 01 da 91    	lea    -0x6e25feb8(%rdi),%eax
  401da3:	c3                   	retq   

0000000000401da4 <getval_231>:
  401da4:	b8 48 89 d1 94       	mov    $0x94d18948,%eax
  401da9:	c3                   	retq   

0000000000401daa <setval_181>:
  401daa:	c7 07 48 89 df c2    	movl   $0xc2df8948,(%rdi)
  401db0:	c3                   	retq   

0000000000401db1 <setval_112>:
  401db1:	c7 07 5a 92 90 c3    	movl   $0xc390925a,(%rdi)
  401db7:	c3                   	retq   

0000000000401db8 <getval_330>:
  401db8:	b8 4b 90 90 c3       	mov    $0xc390904b,%eax
  401dbd:	c3                   	retq   

0000000000401dbe <getval_261>:
  401dbe:	b8 b5 36 26 5a       	mov    $0x5a2636b5,%eax
  401dc3:	c3                   	retq   

0000000000401dc4 <addval_319>:
  401dc4:	8d 87 48 89 d1 c3    	lea    -0x3c2e76b8(%rdi),%eax
  401dca:	c3                   	retq   

0000000000401dcb <getval_163>:
  401dcb:	b8 1f 48 01 da       	mov    $0xda01481f,%eax
  401dd0:	c3                   	retq   

0000000000401dd1 <setval_213>:
  401dd1:	c7 07 45 5b 94 90    	movl   $0x90945b45,(%rdi)
  401dd7:	c3                   	retq   

0000000000401dd8 <end_farm>:
  401dd8:	b8 01 00 00 00       	mov    $0x1,%eax
  401ddd:	c3                   	retq   

0000000000401dde <save_char>:
  401dde:	8b 05 80 43 20 00    	mov    0x204380(%rip),%eax        # 606164 <gets_cnt>
  401de4:	3d ff 03 00 00       	cmp    $0x3ff,%eax
  401de9:	7f 49                	jg     401e34 <save_char+0x56>
  401deb:	8d 14 40             	lea    (%rax,%rax,2),%edx
  401dee:	89 f9                	mov    %edi,%ecx
  401df0:	c0 e9 04             	shr    $0x4,%cl
  401df3:	83 e1 0f             	and    $0xf,%ecx
  401df6:	0f b6 b1 b0 3c 40 00 	movzbl 0x403cb0(%rcx),%esi
  401dfd:	48 63 ca             	movslq %edx,%rcx
  401e00:	40 88 b1 60 55 60 00 	mov    %sil,0x605560(%rcx)
  401e07:	8d 4a 01             	lea    0x1(%rdx),%ecx
  401e0a:	83 e7 0f             	and    $0xf,%edi
  401e0d:	0f b6 b7 b0 3c 40 00 	movzbl 0x403cb0(%rdi),%esi
  401e14:	48 63 c9             	movslq %ecx,%rcx
  401e17:	40 88 b1 60 55 60 00 	mov    %sil,0x605560(%rcx)
  401e1e:	83 c2 02             	add    $0x2,%edx
  401e21:	48 63 d2             	movslq %edx,%rdx
  401e24:	c6 82 60 55 60 00 20 	movb   $0x20,0x605560(%rdx)
  401e2b:	83 c0 01             	add    $0x1,%eax
  401e2e:	89 05 30 43 20 00    	mov    %eax,0x204330(%rip)        # 606164 <gets_cnt>
  401e34:	f3 c3                	repz retq 

0000000000401e36 <save_term>:
  401e36:	8b 05 28 43 20 00    	mov    0x204328(%rip),%eax        # 606164 <gets_cnt>
  401e3c:	8d 04 40             	lea    (%rax,%rax,2),%eax
  401e3f:	48 98                	cltq   
  401e41:	c6 80 60 55 60 00 00 	movb   $0x0,0x605560(%rax)
  401e48:	c3                   	retq   

0000000000401e49 <check_fail>:
  401e49:	48 83 ec 08          	sub    $0x8,%rsp
  401e4d:	0f be 15 14 43 20 00 	movsbl 0x204314(%rip),%edx        # 606168 <target_prefix>
  401e54:	41 b8 60 55 60 00    	mov    $0x605560,%r8d
  401e5a:	8b 0d d8 36 20 00    	mov    0x2036d8(%rip),%ecx        # 605538 <check_level>
  401e60:	be ab 39 40 00       	mov    $0x4039ab,%esi
  401e65:	bf 01 00 00 00       	mov    $0x1,%edi
  401e6a:	b8 00 00 00 00       	mov    $0x0,%eax
  401e6f:	e8 dc f0 ff ff       	callq  400f50 <__printf_chk@plt>
  401e74:	bf 01 00 00 00       	mov    $0x1,%edi
  401e79:	e8 22 f1 ff ff       	callq  400fa0 <exit@plt>

0000000000401e7e <Gets>:
  401e7e:	41 54                	push   %r12
  401e80:	55                   	push   %rbp
  401e81:	53                   	push   %rbx
  401e82:	49 89 fc             	mov    %rdi,%r12
  401e85:	c7 05 d5 42 20 00 00 	movl   $0x0,0x2042d5(%rip)        # 606164 <gets_cnt>
  401e8c:	00 00 00 
  401e8f:	48 89 fb             	mov    %rdi,%rbx
  401e92:	eb 11                	jmp    401ea5 <Gets+0x27>
  401e94:	48 8d 6b 01          	lea    0x1(%rbx),%rbp
  401e98:	88 03                	mov    %al,(%rbx)
  401e9a:	0f b6 f8             	movzbl %al,%edi
  401e9d:	e8 3c ff ff ff       	callq  401dde <save_char>
  401ea2:	48 89 eb             	mov    %rbp,%rbx
  401ea5:	48 8b 3d 84 36 20 00 	mov    0x203684(%rip),%rdi        # 605530 <infile>
  401eac:	e8 6f f0 ff ff       	callq  400f20 <_IO_getc@plt>
  401eb1:	83 f8 ff             	cmp    $0xffffffff,%eax
  401eb4:	75 de                	jne    401e94 <Gets+0x16>
  401eb6:	c6 03 00             	movb   $0x0,(%rbx)
  401eb9:	b8 00 00 00 00       	mov    $0x0,%eax
  401ebe:	e8 73 ff ff ff       	callq  401e36 <save_term>
  401ec3:	4c 89 e0             	mov    %r12,%rax
  401ec6:	5b                   	pop    %rbx
  401ec7:	5d                   	pop    %rbp
  401ec8:	41 5c                	pop    %r12
  401eca:	c3                   	retq   

0000000000401ecb <notify_server>:
  401ecb:	53                   	push   %rbx
  401ecc:	48 81 ec 10 40 00 00 	sub    $0x4010,%rsp
  401ed3:	64 48 8b 04 25 28 00 	mov    %fs:0x28,%rax
  401eda:	00 00 
  401edc:	48 89 84 24 08 40 00 	mov    %rax,0x4008(%rsp)
  401ee3:	00 
  401ee4:	31 c0                	xor    %eax,%eax
  401ee6:	83 3d 5b 36 20 00 00 	cmpl   $0x0,0x20365b(%rip)        # 605548 <is_checker>
  401eed:	0f 85 aa 01 00 00    	jne    40209d <notify_server+0x1d2>
  401ef3:	89 fb                	mov    %edi,%ebx
  401ef5:	8b 05 69 42 20 00    	mov    0x204269(%rip),%eax        # 606164 <gets_cnt>
  401efb:	83 c0 64             	add    $0x64,%eax
  401efe:	3d 00 20 00 00       	cmp    $0x2000,%eax
  401f03:	7e 1e                	jle    401f23 <notify_server+0x58>
  401f05:	be e0 3a 40 00       	mov    $0x403ae0,%esi
  401f0a:	bf 01 00 00 00       	mov    $0x1,%edi
  401f0f:	b8 00 00 00 00       	mov    $0x0,%eax
  401f14:	e8 37 f0 ff ff       	callq  400f50 <__printf_chk@plt>
  401f19:	bf 01 00 00 00       	mov    $0x1,%edi
  401f1e:	e8 7d f0 ff ff       	callq  400fa0 <exit@plt>
  401f23:	0f be 05 3e 42 20 00 	movsbl 0x20423e(%rip),%eax        # 606168 <target_prefix>
  401f2a:	83 3d 97 35 20 00 00 	cmpl   $0x0,0x203597(%rip)        # 6054c8 <notify>
  401f31:	74 08                	je     401f3b <notify_server+0x70>
  401f33:	8b 15 07 36 20 00    	mov    0x203607(%rip),%edx        # 605540 <authkey>
  401f39:	eb 05                	jmp    401f40 <notify_server+0x75>
  401f3b:	ba ff ff ff ff       	mov    $0xffffffff,%edx
  401f40:	85 db                	test   %ebx,%ebx
  401f42:	74 08                	je     401f4c <notify_server+0x81>
  401f44:	41 b9 c1 39 40 00    	mov    $0x4039c1,%r9d
  401f4a:	eb 06                	jmp    401f52 <notify_server+0x87>
  401f4c:	41 b9 c6 39 40 00    	mov    $0x4039c6,%r9d
  401f52:	68 60 55 60 00       	pushq  $0x605560
  401f57:	56                   	push   %rsi
  401f58:	50                   	push   %rax
  401f59:	52                   	push   %rdx
  401f5a:	44 8b 05 27 32 20 00 	mov    0x203227(%rip),%r8d        # 605188 <target_id>
  401f61:	b9 cb 39 40 00       	mov    $0x4039cb,%ecx
  401f66:	ba 00 20 00 00       	mov    $0x2000,%edx
  401f6b:	be 01 00 00 00       	mov    $0x1,%esi
  401f70:	48 8d 7c 24 20       	lea    0x20(%rsp),%rdi
  401f75:	b8 00 00 00 00       	mov    $0x0,%eax
  401f7a:	e8 61 f0 ff ff       	callq  400fe0 <__sprintf_chk@plt>
  401f7f:	48 83 c4 20          	add    $0x20,%rsp
  401f83:	83 3d 3e 35 20 00 00 	cmpl   $0x0,0x20353e(%rip)        # 6054c8 <notify>
  401f8a:	0f 84 81 00 00 00    	je     402011 <notify_server+0x146>
  401f90:	85 db                	test   %ebx,%ebx
  401f92:	74 6e                	je     402002 <notify_server+0x137>
  401f94:	4c 8d 8c 24 00 20 00 	lea    0x2000(%rsp),%r9
  401f9b:	00 
  401f9c:	41 b8 00 00 00 00    	mov    $0x0,%r8d
  401fa2:	48 89 e1             	mov    %rsp,%rcx
  401fa5:	48 8b 15 e4 31 20 00 	mov    0x2031e4(%rip),%rdx        # 605190 <lab>
  401fac:	48 8b 35 e5 31 20 00 	mov    0x2031e5(%rip),%rsi        # 605198 <course>
  401fb3:	48 8b 3d c6 31 20 00 	mov    0x2031c6(%rip),%rdi        # 605180 <user_id>
  401fba:	e8 ef 10 00 00       	callq  4030ae <driver_post>
  401fbf:	85 c0                	test   %eax,%eax
  401fc1:	79 26                	jns    401fe9 <notify_server+0x11e>
  401fc3:	48 8d 94 24 00 20 00 	lea    0x2000(%rsp),%rdx
  401fca:	00 
  401fcb:	be e7 39 40 00       	mov    $0x4039e7,%esi
  401fd0:	bf 01 00 00 00       	mov    $0x1,%edi
  401fd5:	b8 00 00 00 00       	mov    $0x0,%eax
  401fda:	e8 71 ef ff ff       	callq  400f50 <__printf_chk@plt>
  401fdf:	bf 01 00 00 00       	mov    $0x1,%edi
  401fe4:	e8 b7 ef ff ff       	callq  400fa0 <exit@plt>
  401fe9:	bf 10 3b 40 00       	mov    $0x403b10,%edi
  401fee:	e8 0d ee ff ff       	callq  400e00 <puts@plt>
  401ff3:	bf f3 39 40 00       	mov    $0x4039f3,%edi
  401ff8:	e8 03 ee ff ff       	callq  400e00 <puts@plt>
  401ffd:	e9 9b 00 00 00       	jmpq   40209d <notify_server+0x1d2>
  402002:	bf fd 39 40 00       	mov    $0x4039fd,%edi
  402007:	e8 f4 ed ff ff       	callq  400e00 <puts@plt>
  40200c:	e9 8c 00 00 00       	jmpq   40209d <notify_server+0x1d2>
  402011:	85 db                	test   %ebx,%ebx
  402013:	74 07                	je     40201c <notify_server+0x151>
  402015:	ba c1 39 40 00       	mov    $0x4039c1,%edx
  40201a:	eb 05                	jmp    402021 <notify_server+0x156>
  40201c:	ba c6 39 40 00       	mov    $0x4039c6,%edx
  402021:	be 48 3b 40 00       	mov    $0x403b48,%esi
  402026:	bf 01 00 00 00       	mov    $0x1,%edi
  40202b:	b8 00 00 00 00       	mov    $0x0,%eax
  402030:	e8 1b ef ff ff       	callq  400f50 <__printf_chk@plt>
  402035:	48 8b 15 44 31 20 00 	mov    0x203144(%rip),%rdx        # 605180 <user_id>
  40203c:	be 04 3a 40 00       	mov    $0x403a04,%esi
  402041:	bf 01 00 00 00       	mov    $0x1,%edi
  402046:	b8 00 00 00 00       	mov    $0x0,%eax
  40204b:	e8 00 ef ff ff       	callq  400f50 <__printf_chk@plt>
  402050:	48 8b 15 41 31 20 00 	mov    0x203141(%rip),%rdx        # 605198 <course>
  402057:	be 11 3a 40 00       	mov    $0x403a11,%esi
  40205c:	bf 01 00 00 00       	mov    $0x1,%edi
  402061:	b8 00 00 00 00       	mov    $0x0,%eax
  402066:	e8 e5 ee ff ff       	callq  400f50 <__printf_chk@plt>
  40206b:	48 8b 15 1e 31 20 00 	mov    0x20311e(%rip),%rdx        # 605190 <lab>
  402072:	be 1d 3a 40 00       	mov    $0x403a1d,%esi
  402077:	bf 01 00 00 00       	mov    $0x1,%edi
  40207c:	b8 00 00 00 00       	mov    $0x0,%eax
  402081:	e8 ca ee ff ff       	callq  400f50 <__printf_chk@plt>
  402086:	48 89 e2             	mov    %rsp,%rdx
  402089:	be 26 3a 40 00       	mov    $0x403a26,%esi
  40208e:	bf 01 00 00 00       	mov    $0x1,%edi
  402093:	b8 00 00 00 00       	mov    $0x0,%eax
  402098:	e8 b3 ee ff ff       	callq  400f50 <__printf_chk@plt>
  40209d:	48 8b 84 24 08 40 00 	mov    0x4008(%rsp),%rax
  4020a4:	00 
  4020a5:	64 48 33 04 25 28 00 	xor    %fs:0x28,%rax
  4020ac:	00 00 
  4020ae:	74 05                	je     4020b5 <notify_server+0x1ea>
  4020b0:	e8 6b ed ff ff       	callq  400e20 <__stack_chk_fail@plt>
  4020b5:	48 81 c4 10 40 00 00 	add    $0x4010,%rsp
  4020bc:	5b                   	pop    %rbx
  4020bd:	c3                   	retq   

00000000004020be <validate>:
  4020be:	53                   	push   %rbx
  4020bf:	89 fb                	mov    %edi,%ebx
  4020c1:	83 3d 80 34 20 00 00 	cmpl   $0x0,0x203480(%rip)        # 605548 <is_checker>
  4020c8:	74 6b                	je     402135 <validate+0x77>
  4020ca:	39 3d 6c 34 20 00    	cmp    %edi,0x20346c(%rip)        # 60553c <vlevel>
  4020d0:	74 14                	je     4020e6 <validate+0x28>
  4020d2:	bf 32 3a 40 00       	mov    $0x403a32,%edi
  4020d7:	e8 24 ed ff ff       	callq  400e00 <puts@plt>
  4020dc:	b8 00 00 00 00       	mov    $0x0,%eax
  4020e1:	e8 63 fd ff ff       	callq  401e49 <check_fail>
  4020e6:	8b 15 4c 34 20 00    	mov    0x20344c(%rip),%edx        # 605538 <check_level>
  4020ec:	39 d7                	cmp    %edx,%edi
  4020ee:	74 20                	je     402110 <validate+0x52>
  4020f0:	89 f9                	mov    %edi,%ecx
  4020f2:	be 70 3b 40 00       	mov    $0x403b70,%esi
  4020f7:	bf 01 00 00 00       	mov    $0x1,%edi
  4020fc:	b8 00 00 00 00       	mov    $0x0,%eax
  402101:	e8 4a ee ff ff       	callq  400f50 <__printf_chk@plt>
  402106:	b8 00 00 00 00       	mov    $0x0,%eax
  40210b:	e8 39 fd ff ff       	callq  401e49 <check_fail>
  402110:	0f be 15 51 40 20 00 	movsbl 0x204051(%rip),%edx        # 606168 <target_prefix>
  402117:	41 b8 60 55 60 00    	mov    $0x605560,%r8d
  40211d:	89 f9                	mov    %edi,%ecx
  40211f:	be 50 3a 40 00       	mov    $0x403a50,%esi
  402124:	bf 01 00 00 00       	mov    $0x1,%edi
  402129:	b8 00 00 00 00       	mov    $0x0,%eax
  40212e:	e8 1d ee ff ff       	callq  400f50 <__printf_chk@plt>
  402133:	eb 49                	jmp    40217e <validate+0xc0>
  402135:	3b 3d 01 34 20 00    	cmp    0x203401(%rip),%edi        # 60553c <vlevel>
  40213b:	74 18                	je     402155 <validate+0x97>
  40213d:	bf 32 3a 40 00       	mov    $0x403a32,%edi
  402142:	e8 b9 ec ff ff       	callq  400e00 <puts@plt>
  402147:	89 de                	mov    %ebx,%esi
  402149:	bf 00 00 00 00       	mov    $0x0,%edi
  40214e:	e8 78 fd ff ff       	callq  401ecb <notify_server>
  402153:	eb 29                	jmp    40217e <validate+0xc0>
  402155:	0f be 0d 0c 40 20 00 	movsbl 0x20400c(%rip),%ecx        # 606168 <target_prefix>
  40215c:	89 fa                	mov    %edi,%edx
  40215e:	be 98 3b 40 00       	mov    $0x403b98,%esi
  402163:	bf 01 00 00 00       	mov    $0x1,%edi
  402168:	b8 00 00 00 00       	mov    $0x0,%eax
  40216d:	e8 de ed ff ff       	callq  400f50 <__printf_chk@plt>
  402172:	89 de                	mov    %ebx,%esi
  402174:	bf 01 00 00 00       	mov    $0x1,%edi
  402179:	e8 4d fd ff ff       	callq  401ecb <notify_server>
  40217e:	5b                   	pop    %rbx
  40217f:	c3                   	retq   

0000000000402180 <fail>:
  402180:	48 83 ec 08          	sub    $0x8,%rsp
  402184:	83 3d bd 33 20 00 00 	cmpl   $0x0,0x2033bd(%rip)        # 605548 <is_checker>
  40218b:	74 0a                	je     402197 <fail+0x17>
  40218d:	b8 00 00 00 00       	mov    $0x0,%eax
  402192:	e8 b2 fc ff ff       	callq  401e49 <check_fail>
  402197:	89 fe                	mov    %edi,%esi
  402199:	bf 00 00 00 00       	mov    $0x0,%edi
  40219e:	e8 28 fd ff ff       	callq  401ecb <notify_server>
  4021a3:	48 83 c4 08          	add    $0x8,%rsp
  4021a7:	c3                   	retq   

00000000004021a8 <bushandler>:
  4021a8:	48 83 ec 08          	sub    $0x8,%rsp
  4021ac:	83 3d 95 33 20 00 00 	cmpl   $0x0,0x203395(%rip)        # 605548 <is_checker>
  4021b3:	74 14                	je     4021c9 <bushandler+0x21>
  4021b5:	bf 65 3a 40 00       	mov    $0x403a65,%edi
  4021ba:	e8 41 ec ff ff       	callq  400e00 <puts@plt>
  4021bf:	b8 00 00 00 00       	mov    $0x0,%eax
  4021c4:	e8 80 fc ff ff       	callq  401e49 <check_fail>
  4021c9:	bf d0 3b 40 00       	mov    $0x403bd0,%edi
  4021ce:	e8 2d ec ff ff       	callq  400e00 <puts@plt>
  4021d3:	bf 6f 3a 40 00       	mov    $0x403a6f,%edi
  4021d8:	e8 23 ec ff ff       	callq  400e00 <puts@plt>
  4021dd:	be 00 00 00 00       	mov    $0x0,%esi
  4021e2:	bf 00 00 00 00       	mov    $0x0,%edi
  4021e7:	e8 df fc ff ff       	callq  401ecb <notify_server>
  4021ec:	bf 01 00 00 00       	mov    $0x1,%edi
  4021f1:	e8 aa ed ff ff       	callq  400fa0 <exit@plt>

00000000004021f6 <seghandler>:
  4021f6:	48 83 ec 08          	sub    $0x8,%rsp
  4021fa:	83 3d 47 33 20 00 00 	cmpl   $0x0,0x203347(%rip)        # 605548 <is_checker>
  402201:	74 14                	je     402217 <seghandler+0x21>
  402203:	bf 85 3a 40 00       	mov    $0x403a85,%edi
  402208:	e8 f3 eb ff ff       	callq  400e00 <puts@plt>
  40220d:	b8 00 00 00 00       	mov    $0x0,%eax
  402212:	e8 32 fc ff ff       	callq  401e49 <check_fail>
  402217:	bf f0 3b 40 00       	mov    $0x403bf0,%edi
  40221c:	e8 df eb ff ff       	callq  400e00 <puts@plt>
  402221:	bf 6f 3a 40 00       	mov    $0x403a6f,%edi
  402226:	e8 d5 eb ff ff       	callq  400e00 <puts@plt>
  40222b:	be 00 00 00 00       	mov    $0x0,%esi
  402230:	bf 00 00 00 00       	mov    $0x0,%edi
  402235:	e8 91 fc ff ff       	callq  401ecb <notify_server>
  40223a:	bf 01 00 00 00       	mov    $0x1,%edi
  40223f:	e8 5c ed ff ff       	callq  400fa0 <exit@plt>

0000000000402244 <illegalhandler>:
  402244:	48 83 ec 08          	sub    $0x8,%rsp
  402248:	83 3d f9 32 20 00 00 	cmpl   $0x0,0x2032f9(%rip)        # 605548 <is_checker>
  40224f:	74 14                	je     402265 <illegalhandler+0x21>
  402251:	bf 98 3a 40 00       	mov    $0x403a98,%edi
  402256:	e8 a5 eb ff ff       	callq  400e00 <puts@plt>
  40225b:	b8 00 00 00 00       	mov    $0x0,%eax
  402260:	e8 e4 fb ff ff       	callq  401e49 <check_fail>
  402265:	bf 18 3c 40 00       	mov    $0x403c18,%edi
  40226a:	e8 91 eb ff ff       	callq  400e00 <puts@plt>
  40226f:	bf 6f 3a 40 00       	mov    $0x403a6f,%edi
  402274:	e8 87 eb ff ff       	callq  400e00 <puts@plt>
  402279:	be 00 00 00 00       	mov    $0x0,%esi
  40227e:	bf 00 00 00 00       	mov    $0x0,%edi
  402283:	e8 43 fc ff ff       	callq  401ecb <notify_server>
  402288:	bf 01 00 00 00       	mov    $0x1,%edi
  40228d:	e8 0e ed ff ff       	callq  400fa0 <exit@plt>

0000000000402292 <sigalrmhandler>:
  402292:	48 83 ec 08          	sub    $0x8,%rsp
  402296:	83 3d ab 32 20 00 00 	cmpl   $0x0,0x2032ab(%rip)        # 605548 <is_checker>
  40229d:	74 14                	je     4022b3 <sigalrmhandler+0x21>
  40229f:	bf ac 3a 40 00       	mov    $0x403aac,%edi
  4022a4:	e8 57 eb ff ff       	callq  400e00 <puts@plt>
  4022a9:	b8 00 00 00 00       	mov    $0x0,%eax
  4022ae:	e8 96 fb ff ff       	callq  401e49 <check_fail>
  4022b3:	ba 05 00 00 00       	mov    $0x5,%edx
  4022b8:	be 48 3c 40 00       	mov    $0x403c48,%esi
  4022bd:	bf 01 00 00 00       	mov    $0x1,%edi
  4022c2:	b8 00 00 00 00       	mov    $0x0,%eax
  4022c7:	e8 84 ec ff ff       	callq  400f50 <__printf_chk@plt>
  4022cc:	be 00 00 00 00       	mov    $0x0,%esi
  4022d1:	bf 00 00 00 00       	mov    $0x0,%edi
  4022d6:	e8 f0 fb ff ff       	callq  401ecb <notify_server>
  4022db:	bf 01 00 00 00       	mov    $0x1,%edi
  4022e0:	e8 bb ec ff ff       	callq  400fa0 <exit@plt>

00000000004022e5 <launch>:
  4022e5:	55                   	push   %rbp
  4022e6:	48 89 e5             	mov    %rsp,%rbp
  4022e9:	48 83 ec 10          	sub    $0x10,%rsp
  4022ed:	48 89 fa             	mov    %rdi,%rdx
  4022f0:	64 48 8b 04 25 28 00 	mov    %fs:0x28,%rax
  4022f7:	00 00 
  4022f9:	48 89 45 f8          	mov    %rax,-0x8(%rbp)
  4022fd:	31 c0                	xor    %eax,%eax
  4022ff:	48 8d 47 1e          	lea    0x1e(%rdi),%rax
  402303:	48 83 e0 f0          	and    $0xfffffffffffffff0,%rax
  402307:	48 29 c4             	sub    %rax,%rsp
  40230a:	48 8d 7c 24 0f       	lea    0xf(%rsp),%rdi
  40230f:	48 83 e7 f0          	and    $0xfffffffffffffff0,%rdi
  402313:	be f4 00 00 00       	mov    $0xf4,%esi
  402318:	e8 23 eb ff ff       	callq  400e40 <memset@plt>
  40231d:	48 8b 05 cc 31 20 00 	mov    0x2031cc(%rip),%rax        # 6054f0 <stdin@@GLIBC_2.2.5>
  402324:	48 39 05 05 32 20 00 	cmp    %rax,0x203205(%rip)        # 605530 <infile>
  40232b:	75 14                	jne    402341 <launch+0x5c>
  40232d:	be b4 3a 40 00       	mov    $0x403ab4,%esi
  402332:	bf 01 00 00 00       	mov    $0x1,%edi
  402337:	b8 00 00 00 00       	mov    $0x0,%eax
  40233c:	e8 0f ec ff ff       	callq  400f50 <__printf_chk@plt>
  402341:	c7 05 f1 31 20 00 00 	movl   $0x0,0x2031f1(%rip)        # 60553c <vlevel>
  402348:	00 00 00 
  40234b:	b8 00 00 00 00       	mov    $0x0,%eax
  402350:	e8 b3 f9 ff ff       	callq  401d08 <test>
  402355:	83 3d ec 31 20 00 00 	cmpl   $0x0,0x2031ec(%rip)        # 605548 <is_checker>
  40235c:	74 14                	je     402372 <launch+0x8d>
  40235e:	bf c1 3a 40 00       	mov    $0x403ac1,%edi
  402363:	e8 98 ea ff ff       	callq  400e00 <puts@plt>
  402368:	b8 00 00 00 00       	mov    $0x0,%eax
  40236d:	e8 d7 fa ff ff       	callq  401e49 <check_fail>
  402372:	bf cc 3a 40 00       	mov    $0x403acc,%edi
  402377:	e8 84 ea ff ff       	callq  400e00 <puts@plt>
  40237c:	48 8b 45 f8          	mov    -0x8(%rbp),%rax
  402380:	64 48 33 04 25 28 00 	xor    %fs:0x28,%rax
  402387:	00 00 
  402389:	74 05                	je     402390 <launch+0xab>
  40238b:	e8 90 ea ff ff       	callq  400e20 <__stack_chk_fail@plt>
  402390:	c9                   	leaveq 
  402391:	c3                   	retq   

0000000000402392 <stable_launch>:
  402392:	53                   	push   %rbx
  402393:	48 89 3d 8e 31 20 00 	mov    %rdi,0x20318e(%rip)        # 605528 <global_offset>
  40239a:	41 b9 00 00 00 00    	mov    $0x0,%r9d
  4023a0:	41 b8 00 00 00 00    	mov    $0x0,%r8d
  4023a6:	b9 32 01 00 00       	mov    $0x132,%ecx
  4023ab:	ba 07 00 00 00       	mov    $0x7,%edx
  4023b0:	be 00 00 10 00       	mov    $0x100000,%esi
  4023b5:	bf 00 60 58 55       	mov    $0x55586000,%edi
  4023ba:	e8 71 ea ff ff       	callq  400e30 <mmap@plt>
  4023bf:	48 89 c3             	mov    %rax,%rbx
  4023c2:	48 3d 00 60 58 55    	cmp    $0x55586000,%rax
  4023c8:	74 37                	je     402401 <stable_launch+0x6f>
  4023ca:	be 00 00 10 00       	mov    $0x100000,%esi
  4023cf:	48 89 c7             	mov    %rax,%rdi
  4023d2:	e8 69 eb ff ff       	callq  400f40 <munmap@plt>
  4023d7:	b9 00 60 58 55       	mov    $0x55586000,%ecx
  4023dc:	ba 80 3c 40 00       	mov    $0x403c80,%edx
  4023e1:	be 01 00 00 00       	mov    $0x1,%esi
  4023e6:	48 8b 3d 13 31 20 00 	mov    0x203113(%rip),%rdi        # 605500 <stderr@@GLIBC_2.2.5>
  4023ed:	b8 00 00 00 00       	mov    $0x0,%eax
  4023f2:	e8 c9 eb ff ff       	callq  400fc0 <__fprintf_chk@plt>
  4023f7:	bf 01 00 00 00       	mov    $0x1,%edi
  4023fc:	e8 9f eb ff ff       	callq  400fa0 <exit@plt>
  402401:	48 8d 90 f8 ff 0f 00 	lea    0xffff8(%rax),%rdx
  402408:	48 89 15 61 3d 20 00 	mov    %rdx,0x203d61(%rip)        # 606170 <stack_top>
  40240f:	48 89 e0             	mov    %rsp,%rax
  402412:	48 89 d4             	mov    %rdx,%rsp
  402415:	48 89 c2             	mov    %rax,%rdx
  402418:	48 89 15 01 31 20 00 	mov    %rdx,0x203101(%rip)        # 605520 <global_save_stack>
  40241f:	48 8b 3d 02 31 20 00 	mov    0x203102(%rip),%rdi        # 605528 <global_offset>
  402426:	e8 ba fe ff ff       	callq  4022e5 <launch>
  40242b:	48 8b 05 ee 30 20 00 	mov    0x2030ee(%rip),%rax        # 605520 <global_save_stack>
  402432:	48 89 c4             	mov    %rax,%rsp
  402435:	be 00 00 10 00       	mov    $0x100000,%esi
  40243a:	48 89 df             	mov    %rbx,%rdi
  40243d:	e8 fe ea ff ff       	callq  400f40 <munmap@plt>
  402442:	5b                   	pop    %rbx
  402443:	c3                   	retq   

0000000000402444 <rio_readinitb>:
  402444:	89 37                	mov    %esi,(%rdi)
  402446:	c7 47 04 00 00 00 00 	movl   $0x0,0x4(%rdi)
  40244d:	48 8d 47 10          	lea    0x10(%rdi),%rax
  402451:	48 89 47 08          	mov    %rax,0x8(%rdi)
  402455:	c3                   	retq   

0000000000402456 <sigalrm_handler>:
  402456:	48 83 ec 08          	sub    $0x8,%rsp
  40245a:	b9 00 00 00 00       	mov    $0x0,%ecx
  40245f:	ba c0 3c 40 00       	mov    $0x403cc0,%edx
  402464:	be 01 00 00 00       	mov    $0x1,%esi
  402469:	48 8b 3d 90 30 20 00 	mov    0x203090(%rip),%rdi        # 605500 <stderr@@GLIBC_2.2.5>
  402470:	b8 00 00 00 00       	mov    $0x0,%eax
  402475:	e8 46 eb ff ff       	callq  400fc0 <__fprintf_chk@plt>
  40247a:	bf 01 00 00 00       	mov    $0x1,%edi
  40247f:	e8 1c eb ff ff       	callq  400fa0 <exit@plt>

0000000000402484 <rio_writen>:
  402484:	41 55                	push   %r13
  402486:	41 54                	push   %r12
  402488:	55                   	push   %rbp
  402489:	53                   	push   %rbx
  40248a:	48 83 ec 08          	sub    $0x8,%rsp
  40248e:	41 89 fc             	mov    %edi,%r12d
  402491:	48 89 f5             	mov    %rsi,%rbp
  402494:	49 89 d5             	mov    %rdx,%r13
  402497:	48 89 d3             	mov    %rdx,%rbx
  40249a:	eb 28                	jmp    4024c4 <rio_writen+0x40>
  40249c:	48 89 da             	mov    %rbx,%rdx
  40249f:	48 89 ee             	mov    %rbp,%rsi
  4024a2:	44 89 e7             	mov    %r12d,%edi
  4024a5:	e8 66 e9 ff ff       	callq  400e10 <write@plt>
  4024aa:	48 85 c0             	test   %rax,%rax
  4024ad:	7f 0f                	jg     4024be <rio_writen+0x3a>
  4024af:	e8 0c e9 ff ff       	callq  400dc0 <__errno_location@plt>
  4024b4:	83 38 04             	cmpl   $0x4,(%rax)
  4024b7:	75 15                	jne    4024ce <rio_writen+0x4a>
  4024b9:	b8 00 00 00 00       	mov    $0x0,%eax
  4024be:	48 29 c3             	sub    %rax,%rbx
  4024c1:	48 01 c5             	add    %rax,%rbp
  4024c4:	48 85 db             	test   %rbx,%rbx
  4024c7:	75 d3                	jne    40249c <rio_writen+0x18>
  4024c9:	4c 89 e8             	mov    %r13,%rax
  4024cc:	eb 07                	jmp    4024d5 <rio_writen+0x51>
  4024ce:	48 c7 c0 ff ff ff ff 	mov    $0xffffffffffffffff,%rax
  4024d5:	48 83 c4 08          	add    $0x8,%rsp
  4024d9:	5b                   	pop    %rbx
  4024da:	5d                   	pop    %rbp
  4024db:	41 5c                	pop    %r12
  4024dd:	41 5d                	pop    %r13
  4024df:	c3                   	retq   

00000000004024e0 <rio_read>:
  4024e0:	41 55                	push   %r13
  4024e2:	41 54                	push   %r12
  4024e4:	55                   	push   %rbp
  4024e5:	53                   	push   %rbx
  4024e6:	48 83 ec 08          	sub    $0x8,%rsp
  4024ea:	48 89 fb             	mov    %rdi,%rbx
  4024ed:	49 89 f5             	mov    %rsi,%r13
  4024f0:	49 89 d4             	mov    %rdx,%r12
  4024f3:	eb 2e                	jmp    402523 <rio_read+0x43>
  4024f5:	48 8d 6b 10          	lea    0x10(%rbx),%rbp
  4024f9:	8b 3b                	mov    (%rbx),%edi
  4024fb:	ba 00 20 00 00       	mov    $0x2000,%edx
  402500:	48 89 ee             	mov    %rbp,%rsi
  402503:	e8 68 e9 ff ff       	callq  400e70 <read@plt>
  402508:	89 43 04             	mov    %eax,0x4(%rbx)
  40250b:	85 c0                	test   %eax,%eax
  40250d:	79 0c                	jns    40251b <rio_read+0x3b>
  40250f:	e8 ac e8 ff ff       	callq  400dc0 <__errno_location@plt>
  402514:	83 38 04             	cmpl   $0x4,(%rax)
  402517:	74 0a                	je     402523 <rio_read+0x43>
  402519:	eb 37                	jmp    402552 <rio_read+0x72>
  40251b:	85 c0                	test   %eax,%eax
  40251d:	74 3c                	je     40255b <rio_read+0x7b>
  40251f:	48 89 6b 08          	mov    %rbp,0x8(%rbx)
  402523:	8b 6b 04             	mov    0x4(%rbx),%ebp
  402526:	85 ed                	test   %ebp,%ebp
  402528:	7e cb                	jle    4024f5 <rio_read+0x15>
  40252a:	89 e8                	mov    %ebp,%eax
  40252c:	49 39 c4             	cmp    %rax,%r12
  40252f:	77 03                	ja     402534 <rio_read+0x54>
  402531:	44 89 e5             	mov    %r12d,%ebp
  402534:	4c 63 e5             	movslq %ebp,%r12
  402537:	48 8b 73 08          	mov    0x8(%rbx),%rsi
  40253b:	4c 89 e2             	mov    %r12,%rdx
  40253e:	4c 89 ef             	mov    %r13,%rdi
  402541:	e8 9a e9 ff ff       	callq  400ee0 <memcpy@plt>
  402546:	4c 01 63 08          	add    %r12,0x8(%rbx)
  40254a:	29 6b 04             	sub    %ebp,0x4(%rbx)
  40254d:	4c 89 e0             	mov    %r12,%rax
  402550:	eb 0e                	jmp    402560 <rio_read+0x80>
  402552:	48 c7 c0 ff ff ff ff 	mov    $0xffffffffffffffff,%rax
  402559:	eb 05                	jmp    402560 <rio_read+0x80>
  40255b:	b8 00 00 00 00       	mov    $0x0,%eax
  402560:	48 83 c4 08          	add    $0x8,%rsp
  402564:	5b                   	pop    %rbx
  402565:	5d                   	pop    %rbp
  402566:	41 5c                	pop    %r12
  402568:	41 5d                	pop    %r13
  40256a:	c3                   	retq   

000000000040256b <rio_readlineb>:
  40256b:	41 55                	push   %r13
  40256d:	41 54                	push   %r12
  40256f:	55                   	push   %rbp
  402570:	53                   	push   %rbx
  402571:	48 83 ec 18          	sub    $0x18,%rsp
  402575:	49 89 fd             	mov    %rdi,%r13
  402578:	48 89 f5             	mov    %rsi,%rbp
  40257b:	49 89 d4             	mov    %rdx,%r12
  40257e:	64 48 8b 04 25 28 00 	mov    %fs:0x28,%rax
  402585:	00 00 
  402587:	48 89 44 24 08       	mov    %rax,0x8(%rsp)
  40258c:	31 c0                	xor    %eax,%eax
  40258e:	bb 01 00 00 00       	mov    $0x1,%ebx
  402593:	eb 3f                	jmp    4025d4 <rio_readlineb+0x69>
  402595:	ba 01 00 00 00       	mov    $0x1,%edx
  40259a:	48 8d 74 24 07       	lea    0x7(%rsp),%rsi
  40259f:	4c 89 ef             	mov    %r13,%rdi
  4025a2:	e8 39 ff ff ff       	callq  4024e0 <rio_read>
  4025a7:	83 f8 01             	cmp    $0x1,%eax
  4025aa:	75 15                	jne    4025c1 <rio_readlineb+0x56>
  4025ac:	48 8d 45 01          	lea    0x1(%rbp),%rax
  4025b0:	0f b6 54 24 07       	movzbl 0x7(%rsp),%edx
  4025b5:	88 55 00             	mov    %dl,0x0(%rbp)
  4025b8:	80 7c 24 07 0a       	cmpb   $0xa,0x7(%rsp)
  4025bd:	75 0e                	jne    4025cd <rio_readlineb+0x62>
  4025bf:	eb 1a                	jmp    4025db <rio_readlineb+0x70>
  4025c1:	85 c0                	test   %eax,%eax
  4025c3:	75 22                	jne    4025e7 <rio_readlineb+0x7c>
  4025c5:	48 83 fb 01          	cmp    $0x1,%rbx
  4025c9:	75 13                	jne    4025de <rio_readlineb+0x73>
  4025cb:	eb 23                	jmp    4025f0 <rio_readlineb+0x85>
  4025cd:	48 83 c3 01          	add    $0x1,%rbx
  4025d1:	48 89 c5             	mov    %rax,%rbp
  4025d4:	4c 39 e3             	cmp    %r12,%rbx
  4025d7:	72 bc                	jb     402595 <rio_readlineb+0x2a>
  4025d9:	eb 03                	jmp    4025de <rio_readlineb+0x73>
  4025db:	48 89 c5             	mov    %rax,%rbp
  4025de:	c6 45 00 00          	movb   $0x0,0x0(%rbp)
  4025e2:	48 89 d8             	mov    %rbx,%rax
  4025e5:	eb 0e                	jmp    4025f5 <rio_readlineb+0x8a>
  4025e7:	48 c7 c0 ff ff ff ff 	mov    $0xffffffffffffffff,%rax
  4025ee:	eb 05                	jmp    4025f5 <rio_readlineb+0x8a>
  4025f0:	b8 00 00 00 00       	mov    $0x0,%eax
  4025f5:	48 8b 4c 24 08       	mov    0x8(%rsp),%rcx
  4025fa:	64 48 33 0c 25 28 00 	xor    %fs:0x28,%rcx
  402601:	00 00 
  402603:	74 05                	je     40260a <rio_readlineb+0x9f>
  402605:	e8 16 e8 ff ff       	callq  400e20 <__stack_chk_fail@plt>
  40260a:	48 83 c4 18          	add    $0x18,%rsp
  40260e:	5b                   	pop    %rbx
  40260f:	5d                   	pop    %rbp
  402610:	41 5c                	pop    %r12
  402612:	41 5d                	pop    %r13
  402614:	c3                   	retq   

0000000000402615 <urlencode>:
  402615:	41 54                	push   %r12
  402617:	55                   	push   %rbp
  402618:	53                   	push   %rbx
  402619:	48 83 ec 10          	sub    $0x10,%rsp
  40261d:	48 89 fb             	mov    %rdi,%rbx
  402620:	48 89 f5             	mov    %rsi,%rbp
  402623:	64 48 8b 04 25 28 00 	mov    %fs:0x28,%rax
  40262a:	00 00 
  40262c:	48 89 44 24 08       	mov    %rax,0x8(%rsp)
  402631:	31 c0                	xor    %eax,%eax
  402633:	48 c7 c1 ff ff ff ff 	mov    $0xffffffffffffffff,%rcx
  40263a:	f2 ae                	repnz scas %es:(%rdi),%al
  40263c:	48 f7 d1             	not    %rcx
  40263f:	8d 41 ff             	lea    -0x1(%rcx),%eax
  402642:	e9 aa 00 00 00       	jmpq   4026f1 <urlencode+0xdc>
  402647:	44 0f b6 03          	movzbl (%rbx),%r8d
  40264b:	41 80 f8 2a          	cmp    $0x2a,%r8b
  40264f:	0f 94 c2             	sete   %dl
  402652:	41 80 f8 2d          	cmp    $0x2d,%r8b
  402656:	0f 94 c0             	sete   %al
  402659:	08 c2                	or     %al,%dl
  40265b:	75 24                	jne    402681 <urlencode+0x6c>
  40265d:	41 80 f8 2e          	cmp    $0x2e,%r8b
  402661:	74 1e                	je     402681 <urlencode+0x6c>
  402663:	41 80 f8 5f          	cmp    $0x5f,%r8b
  402667:	74 18                	je     402681 <urlencode+0x6c>
  402669:	41 8d 40 d0          	lea    -0x30(%r8),%eax
  40266d:	3c 09                	cmp    $0x9,%al
  40266f:	76 10                	jbe    402681 <urlencode+0x6c>
  402671:	41 8d 40 bf          	lea    -0x41(%r8),%eax
  402675:	3c 19                	cmp    $0x19,%al
  402677:	76 08                	jbe    402681 <urlencode+0x6c>
  402679:	41 8d 40 9f          	lea    -0x61(%r8),%eax
  40267d:	3c 19                	cmp    $0x19,%al
  40267f:	77 0a                	ja     40268b <urlencode+0x76>
  402681:	44 88 45 00          	mov    %r8b,0x0(%rbp)
  402685:	48 8d 6d 01          	lea    0x1(%rbp),%rbp
  402689:	eb 5f                	jmp    4026ea <urlencode+0xd5>
  40268b:	41 80 f8 20          	cmp    $0x20,%r8b
  40268f:	75 0a                	jne    40269b <urlencode+0x86>
  402691:	c6 45 00 2b          	movb   $0x2b,0x0(%rbp)
  402695:	48 8d 6d 01          	lea    0x1(%rbp),%rbp
  402699:	eb 4f                	jmp    4026ea <urlencode+0xd5>
  40269b:	41 8d 40 e0          	lea    -0x20(%r8),%eax
  40269f:	3c 5f                	cmp    $0x5f,%al
  4026a1:	0f 96 c2             	setbe  %dl
  4026a4:	41 80 f8 09          	cmp    $0x9,%r8b
  4026a8:	0f 94 c0             	sete   %al
  4026ab:	08 c2                	or     %al,%dl
  4026ad:	74 50                	je     4026ff <urlencode+0xea>
  4026af:	45 0f b6 c0          	movzbl %r8b,%r8d
  4026b3:	b9 58 3d 40 00       	mov    $0x403d58,%ecx
  4026b8:	ba 08 00 00 00       	mov    $0x8,%edx
  4026bd:	be 01 00 00 00       	mov    $0x1,%esi
  4026c2:	48 89 e7             	mov    %rsp,%rdi
  4026c5:	b8 00 00 00 00       	mov    $0x0,%eax
  4026ca:	e8 11 e9 ff ff       	callq  400fe0 <__sprintf_chk@plt>
  4026cf:	0f b6 04 24          	movzbl (%rsp),%eax
  4026d3:	88 45 00             	mov    %al,0x0(%rbp)
  4026d6:	0f b6 44 24 01       	movzbl 0x1(%rsp),%eax
  4026db:	88 45 01             	mov    %al,0x1(%rbp)
  4026de:	0f b6 44 24 02       	movzbl 0x2(%rsp),%eax
  4026e3:	88 45 02             	mov    %al,0x2(%rbp)
  4026e6:	48 8d 6d 03          	lea    0x3(%rbp),%rbp
  4026ea:	48 83 c3 01          	add    $0x1,%rbx
  4026ee:	44 89 e0             	mov    %r12d,%eax
  4026f1:	44 8d 60 ff          	lea    -0x1(%rax),%r12d
  4026f5:	85 c0                	test   %eax,%eax
  4026f7:	0f 85 4a ff ff ff    	jne    402647 <urlencode+0x32>
  4026fd:	eb 05                	jmp    402704 <urlencode+0xef>
  4026ff:	b8 ff ff ff ff       	mov    $0xffffffff,%eax
  402704:	48 8b 74 24 08       	mov    0x8(%rsp),%rsi
  402709:	64 48 33 34 25 28 00 	xor    %fs:0x28,%rsi
  402710:	00 00 
  402712:	74 05                	je     402719 <urlencode+0x104>
  402714:	e8 07 e7 ff ff       	callq  400e20 <__stack_chk_fail@plt>
  402719:	48 83 c4 10          	add    $0x10,%rsp
  40271d:	5b                   	pop    %rbx
  40271e:	5d                   	pop    %rbp
  40271f:	41 5c                	pop    %r12
  402721:	c3                   	retq   

0000000000402722 <submitr>:
  402722:	41 57                	push   %r15
  402724:	41 56                	push   %r14
  402726:	41 55                	push   %r13
  402728:	41 54                	push   %r12
  40272a:	55                   	push   %rbp
  40272b:	53                   	push   %rbx
  40272c:	48 81 ec 58 a0 00 00 	sub    $0xa058,%rsp
  402733:	49 89 fc             	mov    %rdi,%r12
  402736:	89 74 24 04          	mov    %esi,0x4(%rsp)
  40273a:	49 89 d7             	mov    %rdx,%r15
  40273d:	49 89 ce             	mov    %rcx,%r14
  402740:	4c 89 44 24 08       	mov    %r8,0x8(%rsp)
  402745:	4d 89 cd             	mov    %r9,%r13
  402748:	48 8b 9c 24 90 a0 00 	mov    0xa090(%rsp),%rbx
  40274f:	00 
  402750:	64 48 8b 04 25 28 00 	mov    %fs:0x28,%rax
  402757:	00 00 
  402759:	48 89 84 24 48 a0 00 	mov    %rax,0xa048(%rsp)
  402760:	00 
  402761:	31 c0                	xor    %eax,%eax
  402763:	c7 44 24 1c 00 00 00 	movl   $0x0,0x1c(%rsp)
  40276a:	00 
  40276b:	ba 00 00 00 00       	mov    $0x0,%edx
  402770:	be 01 00 00 00       	mov    $0x1,%esi
  402775:	bf 02 00 00 00       	mov    $0x2,%edi
  40277a:	e8 71 e8 ff ff       	callq  400ff0 <socket@plt>
  40277f:	85 c0                	test   %eax,%eax
  402781:	79 4e                	jns    4027d1 <submitr+0xaf>
  402783:	48 b8 45 72 72 6f 72 	movabs $0x43203a726f727245,%rax
  40278a:	3a 20 43 
  40278d:	48 89 03             	mov    %rax,(%rbx)
  402790:	48 b8 6c 69 65 6e 74 	movabs $0x6e7520746e65696c,%rax
  402797:	20 75 6e 
  40279a:	48 89 43 08          	mov    %rax,0x8(%rbx)
  40279e:	48 b8 61 62 6c 65 20 	movabs $0x206f7420656c6261,%rax
  4027a5:	74 6f 20 
  4027a8:	48 89 43 10          	mov    %rax,0x10(%rbx)
  4027ac:	48 b8 63 72 65 61 74 	movabs $0x7320657461657263,%rax
  4027b3:	65 20 73 
  4027b6:	48 89 43 18          	mov    %rax,0x18(%rbx)
  4027ba:	c7 43 20 6f 63 6b 65 	movl   $0x656b636f,0x20(%rbx)
  4027c1:	66 c7 43 24 74 00    	movw   $0x74,0x24(%rbx)
  4027c7:	b8 ff ff ff ff       	mov    $0xffffffff,%eax
  4027cc:	e9 97 06 00 00       	jmpq   402e68 <submitr+0x746>
  4027d1:	89 c5                	mov    %eax,%ebp
  4027d3:	4c 89 e7             	mov    %r12,%rdi
  4027d6:	e8 d5 e6 ff ff       	callq  400eb0 <gethostbyname@plt>
  4027db:	48 85 c0             	test   %rax,%rax
  4027de:	75 67                	jne    402847 <submitr+0x125>
  4027e0:	48 b8 45 72 72 6f 72 	movabs $0x44203a726f727245,%rax
  4027e7:	3a 20 44 
  4027ea:	48 89 03             	mov    %rax,(%rbx)
  4027ed:	48 b8 4e 53 20 69 73 	movabs $0x6e7520736920534e,%rax
  4027f4:	20 75 6e 
  4027f7:	48 89 43 08          	mov    %rax,0x8(%rbx)
  4027fb:	48 b8 61 62 6c 65 20 	movabs $0x206f7420656c6261,%rax
  402802:	74 6f 20 
  402805:	48 89 43 10          	mov    %rax,0x10(%rbx)
  402809:	48 b8 72 65 73 6f 6c 	movabs $0x2065766c6f736572,%rax
  402810:	76 65 20 
  402813:	48 89 43 18          	mov    %rax,0x18(%rbx)
  402817:	48 b8 73 65 72 76 65 	movabs $0x6120726576726573,%rax
  40281e:	72 20 61 
  402821:	48 89 43 20          	mov    %rax,0x20(%rbx)
  402825:	c7 43 28 64 64 72 65 	movl   $0x65726464,0x28(%rbx)
  40282c:	66 c7 43 2c 73 73    	movw   $0x7373,0x2c(%rbx)
  402832:	c6 43 2e 00          	movb   $0x0,0x2e(%rbx)
  402836:	89 ef                	mov    %ebp,%edi
  402838:	e8 23 e6 ff ff       	callq  400e60 <close@plt>
  40283d:	b8 ff ff ff ff       	mov    $0xffffffff,%eax
  402842:	e9 21 06 00 00       	jmpq   402e68 <submitr+0x746>
  402847:	48 c7 44 24 20 00 00 	movq   $0x0,0x20(%rsp)
  40284e:	00 00 
  402850:	48 c7 44 24 28 00 00 	movq   $0x0,0x28(%rsp)
  402857:	00 00 
  402859:	66 c7 44 24 20 02 00 	movw   $0x2,0x20(%rsp)
  402860:	48 63 50 14          	movslq 0x14(%rax),%rdx
  402864:	48 8b 40 18          	mov    0x18(%rax),%rax
  402868:	48 8b 30             	mov    (%rax),%rsi
  40286b:	48 8d 7c 24 24       	lea    0x24(%rsp),%rdi
  402870:	b9 0c 00 00 00       	mov    $0xc,%ecx
  402875:	e8 46 e6 ff ff       	callq  400ec0 <__memmove_chk@plt>
  40287a:	0f b7 44 24 04       	movzwl 0x4(%rsp),%eax
  40287f:	66 c1 c8 08          	ror    $0x8,%ax
  402883:	66 89 44 24 22       	mov    %ax,0x22(%rsp)
  402888:	ba 10 00 00 00       	mov    $0x10,%edx
  40288d:	48 8d 74 24 20       	lea    0x20(%rsp),%rsi
  402892:	89 ef                	mov    %ebp,%edi
  402894:	e8 17 e7 ff ff       	callq  400fb0 <connect@plt>
  402899:	85 c0                	test   %eax,%eax
  40289b:	79 59                	jns    4028f6 <submitr+0x1d4>
  40289d:	48 b8 45 72 72 6f 72 	movabs $0x55203a726f727245,%rax
  4028a4:	3a 20 55 
  4028a7:	48 89 03             	mov    %rax,(%rbx)
  4028aa:	48 b8 6e 61 62 6c 65 	movabs $0x6f7420656c62616e,%rax
  4028b1:	20 74 6f 
  4028b4:	48 89 43 08          	mov    %rax,0x8(%rbx)
  4028b8:	48 b8 20 63 6f 6e 6e 	movabs $0x7463656e6e6f6320,%rax
  4028bf:	65 63 74 
  4028c2:	48 89 43 10          	mov    %rax,0x10(%rbx)
  4028c6:	48 b8 20 74 6f 20 74 	movabs $0x20656874206f7420,%rax
  4028cd:	68 65 20 
  4028d0:	48 89 43 18          	mov    %rax,0x18(%rbx)
  4028d4:	c7 43 20 73 65 72 76 	movl   $0x76726573,0x20(%rbx)
  4028db:	66 c7 43 24 65 72    	movw   $0x7265,0x24(%rbx)
  4028e1:	c6 43 26 00          	movb   $0x0,0x26(%rbx)
  4028e5:	89 ef                	mov    %ebp,%edi
  4028e7:	e8 74 e5 ff ff       	callq  400e60 <close@plt>
  4028ec:	b8 ff ff ff ff       	mov    $0xffffffff,%eax
  4028f1:	e9 72 05 00 00       	jmpq   402e68 <submitr+0x746>
  4028f6:	48 c7 c6 ff ff ff ff 	mov    $0xffffffffffffffff,%rsi
  4028fd:	b8 00 00 00 00       	mov    $0x0,%eax
  402902:	48 89 f1             	mov    %rsi,%rcx
  402905:	4c 89 ef             	mov    %r13,%rdi
  402908:	f2 ae                	repnz scas %es:(%rdi),%al
  40290a:	48 f7 d1             	not    %rcx
  40290d:	48 89 ca             	mov    %rcx,%rdx
  402910:	48 89 f1             	mov    %rsi,%rcx
  402913:	4c 89 ff             	mov    %r15,%rdi
  402916:	f2 ae                	repnz scas %es:(%rdi),%al
  402918:	48 f7 d1             	not    %rcx
  40291b:	49 89 c8             	mov    %rcx,%r8
  40291e:	48 89 f1             	mov    %rsi,%rcx
  402921:	4c 89 f7             	mov    %r14,%rdi
  402924:	f2 ae                	repnz scas %es:(%rdi),%al
  402926:	48 f7 d1             	not    %rcx
  402929:	4d 8d 44 08 fe       	lea    -0x2(%r8,%rcx,1),%r8
  40292e:	48 89 f1             	mov    %rsi,%rcx
  402931:	48 8b 7c 24 08       	mov    0x8(%rsp),%rdi
  402936:	f2 ae                	repnz scas %es:(%rdi),%al
  402938:	48 89 c8             	mov    %rcx,%rax
  40293b:	48 f7 d0             	not    %rax
  40293e:	49 8d 4c 00 ff       	lea    -0x1(%r8,%rax,1),%rcx
  402943:	48 8d 44 52 fd       	lea    -0x3(%rdx,%rdx,2),%rax
  402948:	48 8d 84 01 80 00 00 	lea    0x80(%rcx,%rax,1),%rax
  40294f:	00 
  402950:	48 3d 00 20 00 00    	cmp    $0x2000,%rax
  402956:	76 72                	jbe    4029ca <submitr+0x2a8>
  402958:	48 b8 45 72 72 6f 72 	movabs $0x52203a726f727245,%rax
  40295f:	3a 20 52 
  402962:	48 89 03             	mov    %rax,(%rbx)
  402965:	48 b8 65 73 75 6c 74 	movabs $0x747320746c757365,%rax
  40296c:	20 73 74 
  40296f:	48 89 43 08          	mov    %rax,0x8(%rbx)
  402973:	48 b8 72 69 6e 67 20 	movabs $0x6f6f7420676e6972,%rax
  40297a:	74 6f 6f 
  40297d:	48 89 43 10          	mov    %rax,0x10(%rbx)
  402981:	48 b8 20 6c 61 72 67 	movabs $0x202e656772616c20,%rax
  402988:	65 2e 20 
  40298b:	48 89 43 18          	mov    %rax,0x18(%rbx)
  40298f:	48 b8 49 6e 63 72 65 	movabs $0x6573616572636e49,%rax
  402996:	61 73 65 
  402999:	48 89 43 20          	mov    %rax,0x20(%rbx)
  40299d:	48 b8 20 53 55 42 4d 	movabs $0x5254494d42555320,%rax
  4029a4:	49 54 52 
  4029a7:	48 89 43 28          	mov    %rax,0x28(%rbx)
  4029ab:	48 b8 5f 4d 41 58 42 	movabs $0x46554258414d5f,%rax
  4029b2:	55 46 00 
  4029b5:	48 89 43 30          	mov    %rax,0x30(%rbx)
  4029b9:	89 ef                	mov    %ebp,%edi
  4029bb:	e8 a0 e4 ff ff       	callq  400e60 <close@plt>
  4029c0:	b8 ff ff ff ff       	mov    $0xffffffff,%eax
  4029c5:	e9 9e 04 00 00       	jmpq   402e68 <submitr+0x746>
  4029ca:	48 8d b4 24 40 40 00 	lea    0x4040(%rsp),%rsi
  4029d1:	00 
  4029d2:	b9 00 04 00 00       	mov    $0x400,%ecx
  4029d7:	b8 00 00 00 00       	mov    $0x0,%eax
  4029dc:	48 89 f7             	mov    %rsi,%rdi
  4029df:	f3 48 ab             	rep stos %rax,%es:(%rdi)
  4029e2:	4c 89 ef             	mov    %r13,%rdi
  4029e5:	e8 2b fc ff ff       	callq  402615 <urlencode>
  4029ea:	85 c0                	test   %eax,%eax
  4029ec:	0f 89 8a 00 00 00    	jns    402a7c <submitr+0x35a>
  4029f2:	48 b8 45 72 72 6f 72 	movabs $0x52203a726f727245,%rax
  4029f9:	3a 20 52 
  4029fc:	48 89 03             	mov    %rax,(%rbx)
  4029ff:	48 b8 65 73 75 6c 74 	movabs $0x747320746c757365,%rax
  402a06:	20 73 74 
  402a09:	48 89 43 08          	mov    %rax,0x8(%rbx)
  402a0d:	48 b8 72 69 6e 67 20 	movabs $0x6e6f6320676e6972,%rax
  402a14:	63 6f 6e 
  402a17:	48 89 43 10          	mov    %rax,0x10(%rbx)
  402a1b:	48 b8 74 61 69 6e 73 	movabs $0x6e6120736e696174,%rax
  402a22:	20 61 6e 
  402a25:	48 89 43 18          	mov    %rax,0x18(%rbx)
  402a29:	48 b8 20 69 6c 6c 65 	movabs $0x6c6167656c6c6920,%rax
  402a30:	67 61 6c 
  402a33:	48 89 43 20          	mov    %rax,0x20(%rbx)
  402a37:	48 b8 20 6f 72 20 75 	movabs $0x72706e7520726f20,%rax
  402a3e:	6e 70 72 
  402a41:	48 89 43 28          	mov    %rax,0x28(%rbx)
  402a45:	48 b8 69 6e 74 61 62 	movabs $0x20656c6261746e69,%rax
  402a4c:	6c 65 20 
  402a4f:	48 89 43 30          	mov    %rax,0x30(%rbx)
  402a53:	48 b8 63 68 61 72 61 	movabs $0x6574636172616863,%rax
  402a5a:	63 74 65 
  402a5d:	48 89 43 38          	mov    %rax,0x38(%rbx)
  402a61:	66 c7 43 40 72 2e    	movw   $0x2e72,0x40(%rbx)
  402a67:	c6 43 42 00          	movb   $0x0,0x42(%rbx)
  402a6b:	89 ef                	mov    %ebp,%edi
  402a6d:	e8 ee e3 ff ff       	callq  400e60 <close@plt>
  402a72:	b8 ff ff ff ff       	mov    $0xffffffff,%eax
  402a77:	e9 ec 03 00 00       	jmpq   402e68 <submitr+0x746>
  402a7c:	4c 8d ac 24 40 20 00 	lea    0x2040(%rsp),%r13
  402a83:	00 
  402a84:	41 54                	push   %r12
  402a86:	48 8d 84 24 48 40 00 	lea    0x4048(%rsp),%rax
  402a8d:	00 
  402a8e:	50                   	push   %rax
  402a8f:	4d 89 f9             	mov    %r15,%r9
  402a92:	4d 89 f0             	mov    %r14,%r8
  402a95:	b9 e8 3c 40 00       	mov    $0x403ce8,%ecx
  402a9a:	ba 00 20 00 00       	mov    $0x2000,%edx
  402a9f:	be 01 00 00 00       	mov    $0x1,%esi
  402aa4:	4c 89 ef             	mov    %r13,%rdi
  402aa7:	b8 00 00 00 00       	mov    $0x0,%eax
  402aac:	e8 2f e5 ff ff       	callq  400fe0 <__sprintf_chk@plt>
  402ab1:	b8 00 00 00 00       	mov    $0x0,%eax
  402ab6:	48 c7 c1 ff ff ff ff 	mov    $0xffffffffffffffff,%rcx
  402abd:	4c 89 ef             	mov    %r13,%rdi
  402ac0:	f2 ae                	repnz scas %es:(%rdi),%al
  402ac2:	48 f7 d1             	not    %rcx
  402ac5:	48 8d 51 ff          	lea    -0x1(%rcx),%rdx
  402ac9:	4c 89 ee             	mov    %r13,%rsi
  402acc:	89 ef                	mov    %ebp,%edi
  402ace:	e8 b1 f9 ff ff       	callq  402484 <rio_writen>
  402ad3:	48 83 c4 10          	add    $0x10,%rsp
  402ad7:	48 85 c0             	test   %rax,%rax
  402ada:	79 6e                	jns    402b4a <submitr+0x428>
  402adc:	48 b8 45 72 72 6f 72 	movabs $0x43203a726f727245,%rax
  402ae3:	3a 20 43 
  402ae6:	48 89 03             	mov    %rax,(%rbx)
  402ae9:	48 b8 6c 69 65 6e 74 	movabs $0x6e7520746e65696c,%rax
  402af0:	20 75 6e 
  402af3:	48 89 43 08          	mov    %rax,0x8(%rbx)
  402af7:	48 b8 61 62 6c 65 20 	movabs $0x206f7420656c6261,%rax
  402afe:	74 6f 20 
  402b01:	48 89 43 10          	mov    %rax,0x10(%rbx)
  402b05:	48 b8 77 72 69 74 65 	movabs $0x6f74206574697277,%rax
  402b0c:	20 74 6f 
  402b0f:	48 89 43 18          	mov    %rax,0x18(%rbx)
  402b13:	48 b8 20 74 68 65 20 	movabs $0x7365722065687420,%rax
  402b1a:	72 65 73 
  402b1d:	48 89 43 20          	mov    %rax,0x20(%rbx)
  402b21:	48 b8 75 6c 74 20 73 	movabs $0x7672657320746c75,%rax
  402b28:	65 72 76 
  402b2b:	48 89 43 28          	mov    %rax,0x28(%rbx)
  402b2f:	66 c7 43 30 65 72    	movw   $0x7265,0x30(%rbx)
  402b35:	c6 43 32 00          	movb   $0x0,0x32(%rbx)
  402b39:	89 ef                	mov    %ebp,%edi
  402b3b:	e8 20 e3 ff ff       	callq  400e60 <close@plt>
  402b40:	b8 ff ff ff ff       	mov    $0xffffffff,%eax
  402b45:	e9 1e 03 00 00       	jmpq   402e68 <submitr+0x746>
  402b4a:	89 ee                	mov    %ebp,%esi
  402b4c:	48 8d 7c 24 30       	lea    0x30(%rsp),%rdi
  402b51:	e8 ee f8 ff ff       	callq  402444 <rio_readinitb>
  402b56:	ba 00 20 00 00       	mov    $0x2000,%edx
  402b5b:	48 8d b4 24 40 20 00 	lea    0x2040(%rsp),%rsi
  402b62:	00 
  402b63:	48 8d 7c 24 30       	lea    0x30(%rsp),%rdi
  402b68:	e8 fe f9 ff ff       	callq  40256b <rio_readlineb>
  402b6d:	48 85 c0             	test   %rax,%rax
  402b70:	7f 7d                	jg     402bef <submitr+0x4cd>
  402b72:	48 b8 45 72 72 6f 72 	movabs $0x43203a726f727245,%rax
  402b79:	3a 20 43 
  402b7c:	48 89 03             	mov    %rax,(%rbx)
  402b7f:	48 b8 6c 69 65 6e 74 	movabs $0x6e7520746e65696c,%rax
  402b86:	20 75 6e 
  402b89:	48 89 43 08          	mov    %rax,0x8(%rbx)
  402b8d:	48 b8 61 62 6c 65 20 	movabs $0x206f7420656c6261,%rax
  402b94:	74 6f 20 
  402b97:	48 89 43 10          	mov    %rax,0x10(%rbx)
  402b9b:	48 b8 72 65 61 64 20 	movabs $0x7269662064616572,%rax
  402ba2:	66 69 72 
  402ba5:	48 89 43 18          	mov    %rax,0x18(%rbx)
  402ba9:	48 b8 73 74 20 68 65 	movabs $0x6564616568207473,%rax
  402bb0:	61 64 65 
  402bb3:	48 89 43 20          	mov    %rax,0x20(%rbx)
  402bb7:	48 b8 72 20 66 72 6f 	movabs $0x72206d6f72662072,%rax
  402bbe:	6d 20 72 
  402bc1:	48 89 43 28          	mov    %rax,0x28(%rbx)
  402bc5:	48 b8 65 73 75 6c 74 	movabs $0x657320746c757365,%rax
  402bcc:	20 73 65 
  402bcf:	48 89 43 30          	mov    %rax,0x30(%rbx)
  402bd3:	c7 43 38 72 76 65 72 	movl   $0x72657672,0x38(%rbx)
  402bda:	c6 43 3c 00          	movb   $0x0,0x3c(%rbx)
  402bde:	89 ef                	mov    %ebp,%edi
  402be0:	e8 7b e2 ff ff       	callq  400e60 <close@plt>
  402be5:	b8 ff ff ff ff       	mov    $0xffffffff,%eax
  402bea:	e9 79 02 00 00       	jmpq   402e68 <submitr+0x746>
  402bef:	4c 8d 84 24 40 80 00 	lea    0x8040(%rsp),%r8
  402bf6:	00 
  402bf7:	48 8d 4c 24 1c       	lea    0x1c(%rsp),%rcx
  402bfc:	48 8d 94 24 40 60 00 	lea    0x6040(%rsp),%rdx
  402c03:	00 
  402c04:	be 5f 3d 40 00       	mov    $0x403d5f,%esi
  402c09:	48 8d bc 24 40 20 00 	lea    0x2040(%rsp),%rdi
  402c10:	00 
  402c11:	b8 00 00 00 00       	mov    $0x0,%eax
  402c16:	e8 15 e3 ff ff       	callq  400f30 <__isoc99_sscanf@plt>
  402c1b:	e9 95 00 00 00       	jmpq   402cb5 <submitr+0x593>
  402c20:	ba 00 20 00 00       	mov    $0x2000,%edx
  402c25:	48 8d b4 24 40 20 00 	lea    0x2040(%rsp),%rsi
  402c2c:	00 
  402c2d:	48 8d 7c 24 30       	lea    0x30(%rsp),%rdi
  402c32:	e8 34 f9 ff ff       	callq  40256b <rio_readlineb>
  402c37:	48 85 c0             	test   %rax,%rax
  402c3a:	7f 79                	jg     402cb5 <submitr+0x593>
  402c3c:	48 b8 45 72 72 6f 72 	movabs $0x43203a726f727245,%rax
  402c43:	3a 20 43 
  402c46:	48 89 03             	mov    %rax,(%rbx)
  402c49:	48 b8 6c 69 65 6e 74 	movabs $0x6e7520746e65696c,%rax
  402c50:	20 75 6e 
  402c53:	48 89 43 08          	mov    %rax,0x8(%rbx)
  402c57:	48 b8 61 62 6c 65 20 	movabs $0x206f7420656c6261,%rax
  402c5e:	74 6f 20 
  402c61:	48 89 43 10          	mov    %rax,0x10(%rbx)
  402c65:	48 b8 72 65 61 64 20 	movabs $0x6165682064616572,%rax
  402c6c:	68 65 61 
  402c6f:	48 89 43 18          	mov    %rax,0x18(%rbx)
  402c73:	48 b8 64 65 72 73 20 	movabs $0x6f72662073726564,%rax
  402c7a:	66 72 6f 
  402c7d:	48 89 43 20          	mov    %rax,0x20(%rbx)
  402c81:	48 b8 6d 20 74 68 65 	movabs $0x657220656874206d,%rax
  402c88:	20 72 65 
  402c8b:	48 89 43 28          	mov    %rax,0x28(%rbx)
  402c8f:	48 b8 73 75 6c 74 20 	movabs $0x72657320746c7573,%rax
  402c96:	73 65 72 
  402c99:	48 89 43 30          	mov    %rax,0x30(%rbx)
  402c9d:	c7 43 38 76 65 72 00 	movl   $0x726576,0x38(%rbx)
  402ca4:	89 ef                	mov    %ebp,%edi
  402ca6:	e8 b5 e1 ff ff       	callq  400e60 <close@plt>
  402cab:	b8 ff ff ff ff       	mov    $0xffffffff,%eax
  402cb0:	e9 b3 01 00 00       	jmpq   402e68 <submitr+0x746>
  402cb5:	0f b6 94 24 40 20 00 	movzbl 0x2040(%rsp),%edx
  402cbc:	00 
  402cbd:	b8 0d 00 00 00       	mov    $0xd,%eax
  402cc2:	29 d0                	sub    %edx,%eax
  402cc4:	75 1b                	jne    402ce1 <submitr+0x5bf>
  402cc6:	0f b6 94 24 41 20 00 	movzbl 0x2041(%rsp),%edx
  402ccd:	00 
  402cce:	b8 0a 00 00 00       	mov    $0xa,%eax
  402cd3:	29 d0                	sub    %edx,%eax
  402cd5:	75 0a                	jne    402ce1 <submitr+0x5bf>
  402cd7:	0f b6 84 24 42 20 00 	movzbl 0x2042(%rsp),%eax
  402cde:	00 
  402cdf:	f7 d8                	neg    %eax
  402ce1:	85 c0                	test   %eax,%eax
  402ce3:	0f 85 37 ff ff ff    	jne    402c20 <submitr+0x4fe>
  402ce9:	ba 00 20 00 00       	mov    $0x2000,%edx
  402cee:	48 8d b4 24 40 20 00 	lea    0x2040(%rsp),%rsi
  402cf5:	00 
  402cf6:	48 8d 7c 24 30       	lea    0x30(%rsp),%rdi
  402cfb:	e8 6b f8 ff ff       	callq  40256b <rio_readlineb>
  402d00:	48 85 c0             	test   %rax,%rax
  402d03:	0f 8f 83 00 00 00    	jg     402d8c <submitr+0x66a>
  402d09:	48 b8 45 72 72 6f 72 	movabs $0x43203a726f727245,%rax
  402d10:	3a 20 43 
  402d13:	48 89 03             	mov    %rax,(%rbx)
  402d16:	48 b8 6c 69 65 6e 74 	movabs $0x6e7520746e65696c,%rax
  402d1d:	20 75 6e 
  402d20:	48 89 43 08          	mov    %rax,0x8(%rbx)
  402d24:	48 b8 61 62 6c 65 20 	movabs $0x206f7420656c6261,%rax
  402d2b:	74 6f 20 
  402d2e:	48 89 43 10          	mov    %rax,0x10(%rbx)
  402d32:	48 b8 72 65 61 64 20 	movabs $0x6174732064616572,%rax
  402d39:	73 74 61 
  402d3c:	48 89 43 18          	mov    %rax,0x18(%rbx)
  402d40:	48 b8 74 75 73 20 6d 	movabs $0x7373656d20737574,%rax
  402d47:	65 73 73 
  402d4a:	48 89 43 20          	mov    %rax,0x20(%rbx)
  402d4e:	48 b8 61 67 65 20 66 	movabs $0x6d6f726620656761,%rax
  402d55:	72 6f 6d 
  402d58:	48 89 43 28          	mov    %rax,0x28(%rbx)
  402d5c:	48 b8 20 72 65 73 75 	movabs $0x20746c7573657220,%rax
  402d63:	6c 74 20 
  402d66:	48 89 43 30          	mov    %rax,0x30(%rbx)
  402d6a:	c7 43 38 73 65 72 76 	movl   $0x76726573,0x38(%rbx)
  402d71:	66 c7 43 3c 65 72    	movw   $0x7265,0x3c(%rbx)
  402d77:	c6 43 3e 00          	movb   $0x0,0x3e(%rbx)
  402d7b:	89 ef                	mov    %ebp,%edi
  402d7d:	e8 de e0 ff ff       	callq  400e60 <close@plt>
  402d82:	b8 ff ff ff ff       	mov    $0xffffffff,%eax
  402d87:	e9 dc 00 00 00       	jmpq   402e68 <submitr+0x746>
  402d8c:	44 8b 44 24 1c       	mov    0x1c(%rsp),%r8d
  402d91:	41 81 f8 c8 00 00 00 	cmp    $0xc8,%r8d
  402d98:	74 37                	je     402dd1 <submitr+0x6af>
  402d9a:	4c 8d 8c 24 40 80 00 	lea    0x8040(%rsp),%r9
  402da1:	00 
  402da2:	b9 28 3d 40 00       	mov    $0x403d28,%ecx
  402da7:	48 c7 c2 ff ff ff ff 	mov    $0xffffffffffffffff,%rdx
  402dae:	be 01 00 00 00       	mov    $0x1,%esi
  402db3:	48 89 df             	mov    %rbx,%rdi
  402db6:	b8 00 00 00 00       	mov    $0x0,%eax
  402dbb:	e8 20 e2 ff ff       	callq  400fe0 <__sprintf_chk@plt>
  402dc0:	89 ef                	mov    %ebp,%edi
  402dc2:	e8 99 e0 ff ff       	callq  400e60 <close@plt>
  402dc7:	b8 ff ff ff ff       	mov    $0xffffffff,%eax
  402dcc:	e9 97 00 00 00       	jmpq   402e68 <submitr+0x746>
  402dd1:	48 8d b4 24 40 20 00 	lea    0x2040(%rsp),%rsi
  402dd8:	00 
  402dd9:	48 89 df             	mov    %rbx,%rdi
  402ddc:	e8 0f e0 ff ff       	callq  400df0 <strcpy@plt>
  402de1:	89 ef                	mov    %ebp,%edi
  402de3:	e8 78 e0 ff ff       	callq  400e60 <close@plt>
  402de8:	0f b6 03             	movzbl (%rbx),%eax
  402deb:	ba 4f 00 00 00       	mov    $0x4f,%edx
  402df0:	29 c2                	sub    %eax,%edx
  402df2:	75 22                	jne    402e16 <submitr+0x6f4>
  402df4:	0f b6 4b 01          	movzbl 0x1(%rbx),%ecx
  402df8:	b8 4b 00 00 00       	mov    $0x4b,%eax
  402dfd:	29 c8                	sub    %ecx,%eax
  402dff:	75 17                	jne    402e18 <submitr+0x6f6>
  402e01:	0f b6 4b 02          	movzbl 0x2(%rbx),%ecx
  402e05:	b8 0a 00 00 00       	mov    $0xa,%eax
  402e0a:	29 c8                	sub    %ecx,%eax
  402e0c:	75 0a                	jne    402e18 <submitr+0x6f6>
  402e0e:	0f b6 43 03          	movzbl 0x3(%rbx),%eax
  402e12:	f7 d8                	neg    %eax
  402e14:	eb 02                	jmp    402e18 <submitr+0x6f6>
  402e16:	89 d0                	mov    %edx,%eax
  402e18:	85 c0                	test   %eax,%eax
  402e1a:	74 40                	je     402e5c <submitr+0x73a>
  402e1c:	bf 70 3d 40 00       	mov    $0x403d70,%edi
  402e21:	b9 05 00 00 00       	mov    $0x5,%ecx
  402e26:	48 89 de             	mov    %rbx,%rsi
  402e29:	f3 a6                	repz cmpsb %es:(%rdi),%ds:(%rsi)
  402e2b:	0f 97 c0             	seta   %al
  402e2e:	0f 92 c1             	setb   %cl
  402e31:	29 c8                	sub    %ecx,%eax
  402e33:	0f be c0             	movsbl %al,%eax
  402e36:	85 c0                	test   %eax,%eax
  402e38:	74 2e                	je     402e68 <submitr+0x746>
  402e3a:	85 d2                	test   %edx,%edx
  402e3c:	75 13                	jne    402e51 <submitr+0x72f>
  402e3e:	0f b6 43 01          	movzbl 0x1(%rbx),%eax
  402e42:	ba 4b 00 00 00       	mov    $0x4b,%edx
  402e47:	29 c2                	sub    %eax,%edx
  402e49:	75 06                	jne    402e51 <submitr+0x72f>
  402e4b:	0f b6 53 02          	movzbl 0x2(%rbx),%edx
  402e4f:	f7 da                	neg    %edx
  402e51:	85 d2                	test   %edx,%edx
  402e53:	75 0e                	jne    402e63 <submitr+0x741>
  402e55:	b8 00 00 00 00       	mov    $0x0,%eax
  402e5a:	eb 0c                	jmp    402e68 <submitr+0x746>
  402e5c:	b8 00 00 00 00       	mov    $0x0,%eax
  402e61:	eb 05                	jmp    402e68 <submitr+0x746>
  402e63:	b8 ff ff ff ff       	mov    $0xffffffff,%eax
  402e68:	48 8b 9c 24 48 a0 00 	mov    0xa048(%rsp),%rbx
  402e6f:	00 
  402e70:	64 48 33 1c 25 28 00 	xor    %fs:0x28,%rbx
  402e77:	00 00 
  402e79:	74 05                	je     402e80 <submitr+0x75e>
  402e7b:	e8 a0 df ff ff       	callq  400e20 <__stack_chk_fail@plt>
  402e80:	48 81 c4 58 a0 00 00 	add    $0xa058,%rsp
  402e87:	5b                   	pop    %rbx
  402e88:	5d                   	pop    %rbp
  402e89:	41 5c                	pop    %r12
  402e8b:	41 5d                	pop    %r13
  402e8d:	41 5e                	pop    %r14
  402e8f:	41 5f                	pop    %r15
  402e91:	c3                   	retq   

0000000000402e92 <init_timeout>:
  402e92:	85 ff                	test   %edi,%edi
  402e94:	74 23                	je     402eb9 <init_timeout+0x27>
  402e96:	53                   	push   %rbx
  402e97:	89 fb                	mov    %edi,%ebx
  402e99:	85 ff                	test   %edi,%edi
  402e9b:	79 05                	jns    402ea2 <init_timeout+0x10>
  402e9d:	bb 00 00 00 00       	mov    $0x0,%ebx
  402ea2:	be 56 24 40 00       	mov    $0x402456,%esi
  402ea7:	bf 0e 00 00 00       	mov    $0xe,%edi
  402eac:	e8 ef df ff ff       	callq  400ea0 <signal@plt>
  402eb1:	89 df                	mov    %ebx,%edi
  402eb3:	e8 98 df ff ff       	callq  400e50 <alarm@plt>
  402eb8:	5b                   	pop    %rbx
  402eb9:	f3 c3                	repz retq 

0000000000402ebb <init_driver>:
  402ebb:	55                   	push   %rbp
  402ebc:	53                   	push   %rbx
  402ebd:	48 83 ec 28          	sub    $0x28,%rsp
  402ec1:	48 89 fd             	mov    %rdi,%rbp
  402ec4:	64 48 8b 04 25 28 00 	mov    %fs:0x28,%rax
  402ecb:	00 00 
  402ecd:	48 89 44 24 18       	mov    %rax,0x18(%rsp)
  402ed2:	31 c0                	xor    %eax,%eax
  402ed4:	be 01 00 00 00       	mov    $0x1,%esi
  402ed9:	bf 0d 00 00 00       	mov    $0xd,%edi
  402ede:	e8 bd df ff ff       	callq  400ea0 <signal@plt>
  402ee3:	be 01 00 00 00       	mov    $0x1,%esi
  402ee8:	bf 1d 00 00 00       	mov    $0x1d,%edi
  402eed:	e8 ae df ff ff       	callq  400ea0 <signal@plt>
  402ef2:	be 01 00 00 00       	mov    $0x1,%esi
  402ef7:	bf 1d 00 00 00       	mov    $0x1d,%edi
  402efc:	e8 9f df ff ff       	callq  400ea0 <signal@plt>
  402f01:	ba 00 00 00 00       	mov    $0x0,%edx
  402f06:	be 01 00 00 00       	mov    $0x1,%esi
  402f0b:	bf 02 00 00 00       	mov    $0x2,%edi
  402f10:	e8 db e0 ff ff       	callq  400ff0 <socket@plt>
  402f15:	85 c0                	test   %eax,%eax
  402f17:	79 4f                	jns    402f68 <init_driver+0xad>
  402f19:	48 b8 45 72 72 6f 72 	movabs $0x43203a726f727245,%rax
  402f20:	3a 20 43 
  402f23:	48 89 45 00          	mov    %rax,0x0(%rbp)
  402f27:	48 b8 6c 69 65 6e 74 	movabs $0x6e7520746e65696c,%rax
  402f2e:	20 75 6e 
  402f31:	48 89 45 08          	mov    %rax,0x8(%rbp)
  402f35:	48 b8 61 62 6c 65 20 	movabs $0x206f7420656c6261,%rax
  402f3c:	74 6f 20 
  402f3f:	48 89 45 10          	mov    %rax,0x10(%rbp)
  402f43:	48 b8 63 72 65 61 74 	movabs $0x7320657461657263,%rax
  402f4a:	65 20 73 
  402f4d:	48 89 45 18          	mov    %rax,0x18(%rbp)
  402f51:	c7 45 20 6f 63 6b 65 	movl   $0x656b636f,0x20(%rbp)
  402f58:	66 c7 45 24 74 00    	movw   $0x74,0x24(%rbp)
  402f5e:	b8 ff ff ff ff       	mov    $0xffffffff,%eax
  402f63:	e9 2a 01 00 00       	jmpq   403092 <init_driver+0x1d7>
  402f68:	89 c3                	mov    %eax,%ebx
  402f6a:	bf 75 3d 40 00       	mov    $0x403d75,%edi
  402f6f:	e8 3c df ff ff       	callq  400eb0 <gethostbyname@plt>
  402f74:	48 85 c0             	test   %rax,%rax
  402f77:	75 68                	jne    402fe1 <init_driver+0x126>
  402f79:	48 b8 45 72 72 6f 72 	movabs $0x44203a726f727245,%rax
  402f80:	3a 20 44 
  402f83:	48 89 45 00          	mov    %rax,0x0(%rbp)
  402f87:	48 b8 4e 53 20 69 73 	movabs $0x6e7520736920534e,%rax
  402f8e:	20 75 6e 
  402f91:	48 89 45 08          	mov    %rax,0x8(%rbp)
  402f95:	48 b8 61 62 6c 65 20 	movabs $0x206f7420656c6261,%rax
  402f9c:	74 6f 20 
  402f9f:	48 89 45 10          	mov    %rax,0x10(%rbp)
  402fa3:	48 b8 72 65 73 6f 6c 	movabs $0x2065766c6f736572,%rax
  402faa:	76 65 20 
  402fad:	48 89 45 18          	mov    %rax,0x18(%rbp)
  402fb1:	48 b8 73 65 72 76 65 	movabs $0x6120726576726573,%rax
  402fb8:	72 20 61 
  402fbb:	48 89 45 20          	mov    %rax,0x20(%rbp)
  402fbf:	c7 45 28 64 64 72 65 	movl   $0x65726464,0x28(%rbp)
  402fc6:	66 c7 45 2c 73 73    	movw   $0x7373,0x2c(%rbp)
  402fcc:	c6 45 2e 00          	movb   $0x0,0x2e(%rbp)
  402fd0:	89 df                	mov    %ebx,%edi
  402fd2:	e8 89 de ff ff       	callq  400e60 <close@plt>
  402fd7:	b8 ff ff ff ff       	mov    $0xffffffff,%eax
  402fdc:	e9 b1 00 00 00       	jmpq   403092 <init_driver+0x1d7>
  402fe1:	48 c7 04 24 00 00 00 	movq   $0x0,(%rsp)
  402fe8:	00 
  402fe9:	48 c7 44 24 08 00 00 	movq   $0x0,0x8(%rsp)
  402ff0:	00 00 
  402ff2:	66 c7 04 24 02 00    	movw   $0x2,(%rsp)
  402ff8:	48 63 50 14          	movslq 0x14(%rax),%rdx
  402ffc:	48 8b 40 18          	mov    0x18(%rax),%rax
  403000:	48 8b 30             	mov    (%rax),%rsi
  403003:	48 8d 7c 24 04       	lea    0x4(%rsp),%rdi
  403008:	b9 0c 00 00 00       	mov    $0xc,%ecx
  40300d:	e8 ae de ff ff       	callq  400ec0 <__memmove_chk@plt>
  403012:	66 c7 44 24 02 3b 6e 	movw   $0x6e3b,0x2(%rsp)
  403019:	ba 10 00 00 00       	mov    $0x10,%edx
  40301e:	48 89 e6             	mov    %rsp,%rsi
  403021:	89 df                	mov    %ebx,%edi
  403023:	e8 88 df ff ff       	callq  400fb0 <connect@plt>
  403028:	85 c0                	test   %eax,%eax
  40302a:	79 50                	jns    40307c <init_driver+0x1c1>
  40302c:	48 b8 45 72 72 6f 72 	movabs $0x55203a726f727245,%rax
  403033:	3a 20 55 
  403036:	48 89 45 00          	mov    %rax,0x0(%rbp)
  40303a:	48 b8 6e 61 62 6c 65 	movabs $0x6f7420656c62616e,%rax
  403041:	20 74 6f 
  403044:	48 89 45 08          	mov    %rax,0x8(%rbp)
  403048:	48 b8 20 63 6f 6e 6e 	movabs $0x7463656e6e6f6320,%rax
  40304f:	65 63 74 
  403052:	48 89 45 10          	mov    %rax,0x10(%rbp)
  403056:	48 b8 20 74 6f 20 73 	movabs $0x76726573206f7420,%rax
  40305d:	65 72 76 
  403060:	48 89 45 18          	mov    %rax,0x18(%rbp)
  403064:	66 c7 45 20 65 72    	movw   $0x7265,0x20(%rbp)
  40306a:	c6 45 22 00          	movb   $0x0,0x22(%rbp)
  40306e:	89 df                	mov    %ebx,%edi
  403070:	e8 eb dd ff ff       	callq  400e60 <close@plt>
  403075:	b8 ff ff ff ff       	mov    $0xffffffff,%eax
  40307a:	eb 16                	jmp    403092 <init_driver+0x1d7>
  40307c:	89 df                	mov    %ebx,%edi
  40307e:	e8 dd dd ff ff       	callq  400e60 <close@plt>
  403083:	66 c7 45 00 4f 4b    	movw   $0x4b4f,0x0(%rbp)
  403089:	c6 45 02 00          	movb   $0x0,0x2(%rbp)
  40308d:	b8 00 00 00 00       	mov    $0x0,%eax
  403092:	48 8b 4c 24 18       	mov    0x18(%rsp),%rcx
  403097:	64 48 33 0c 25 28 00 	xor    %fs:0x28,%rcx
  40309e:	00 00 
  4030a0:	74 05                	je     4030a7 <init_driver+0x1ec>
  4030a2:	e8 79 dd ff ff       	callq  400e20 <__stack_chk_fail@plt>
  4030a7:	48 83 c4 28          	add    $0x28,%rsp
  4030ab:	5b                   	pop    %rbx
  4030ac:	5d                   	pop    %rbp
  4030ad:	c3                   	retq   

00000000004030ae <driver_post>:
  4030ae:	53                   	push   %rbx
  4030af:	4c 89 cb             	mov    %r9,%rbx
  4030b2:	45 85 c0             	test   %r8d,%r8d
  4030b5:	74 27                	je     4030de <driver_post+0x30>
  4030b7:	48 89 ca             	mov    %rcx,%rdx
  4030ba:	be 84 3d 40 00       	mov    $0x403d84,%esi
  4030bf:	bf 01 00 00 00       	mov    $0x1,%edi
  4030c4:	b8 00 00 00 00       	mov    $0x0,%eax
  4030c9:	e8 82 de ff ff       	callq  400f50 <__printf_chk@plt>
  4030ce:	66 c7 03 4f 4b       	movw   $0x4b4f,(%rbx)
  4030d3:	c6 43 02 00          	movb   $0x0,0x2(%rbx)
  4030d7:	b8 00 00 00 00       	mov    $0x0,%eax
  4030dc:	eb 3f                	jmp    40311d <driver_post+0x6f>
  4030de:	48 85 ff             	test   %rdi,%rdi
  4030e1:	74 2c                	je     40310f <driver_post+0x61>
  4030e3:	80 3f 00             	cmpb   $0x0,(%rdi)
  4030e6:	74 27                	je     40310f <driver_post+0x61>
  4030e8:	48 83 ec 08          	sub    $0x8,%rsp
  4030ec:	41 51                	push   %r9
  4030ee:	49 89 c9             	mov    %rcx,%r9
  4030f1:	49 89 d0             	mov    %rdx,%r8
  4030f4:	48 89 f9             	mov    %rdi,%rcx
  4030f7:	48 89 f2             	mov    %rsi,%rdx
  4030fa:	be 6e 3b 00 00       	mov    $0x3b6e,%esi
  4030ff:	bf 75 3d 40 00       	mov    $0x403d75,%edi
  403104:	e8 19 f6 ff ff       	callq  402722 <submitr>
  403109:	48 83 c4 10          	add    $0x10,%rsp
  40310d:	eb 0e                	jmp    40311d <driver_post+0x6f>
  40310f:	66 c7 03 4f 4b       	movw   $0x4b4f,(%rbx)
  403114:	c6 43 02 00          	movb   $0x0,0x2(%rbx)
  403118:	b8 00 00 00 00       	mov    $0x0,%eax
  40311d:	5b                   	pop    %rbx
  40311e:	c3                   	retq   

000000000040311f <check>:
  40311f:	89 f8                	mov    %edi,%eax
  403121:	c1 e8 1c             	shr    $0x1c,%eax
  403124:	85 c0                	test   %eax,%eax
  403126:	74 1d                	je     403145 <check+0x26>
  403128:	b9 00 00 00 00       	mov    $0x0,%ecx
  40312d:	eb 0b                	jmp    40313a <check+0x1b>
  40312f:	89 f8                	mov    %edi,%eax
  403131:	d3 e8                	shr    %cl,%eax
  403133:	3c 0a                	cmp    $0xa,%al
  403135:	74 14                	je     40314b <check+0x2c>
  403137:	83 c1 08             	add    $0x8,%ecx
  40313a:	83 f9 1f             	cmp    $0x1f,%ecx
  40313d:	7e f0                	jle    40312f <check+0x10>
  40313f:	b8 01 00 00 00       	mov    $0x1,%eax
  403144:	c3                   	retq   
  403145:	b8 00 00 00 00       	mov    $0x0,%eax
  40314a:	c3                   	retq   
  40314b:	b8 00 00 00 00       	mov    $0x0,%eax
  403150:	c3                   	retq   

0000000000403151 <gencookie>:
  403151:	53                   	push   %rbx
  403152:	83 c7 01             	add    $0x1,%edi
  403155:	e8 76 dc ff ff       	callq  400dd0 <srandom@plt>
  40315a:	e8 a1 dd ff ff       	callq  400f00 <random@plt>
  40315f:	89 c3                	mov    %eax,%ebx
  403161:	89 c7                	mov    %eax,%edi
  403163:	e8 b7 ff ff ff       	callq  40311f <check>
  403168:	85 c0                	test   %eax,%eax
  40316a:	74 ee                	je     40315a <gencookie+0x9>
  40316c:	89 d8                	mov    %ebx,%eax
  40316e:	5b                   	pop    %rbx
  40316f:	c3                   	retq   

0000000000403170 <__libc_csu_init>:
  403170:	41 57                	push   %r15
  403172:	41 56                	push   %r14
  403174:	41 89 ff             	mov    %edi,%r15d
  403177:	41 55                	push   %r13
  403179:	41 54                	push   %r12
  40317b:	4c 8d 25 8e 1c 20 00 	lea    0x201c8e(%rip),%r12        # 604e10 <__frame_dummy_init_array_entry>
  403182:	55                   	push   %rbp
  403183:	48 8d 2d 8e 1c 20 00 	lea    0x201c8e(%rip),%rbp        # 604e18 <__init_array_end>
  40318a:	53                   	push   %rbx
  40318b:	49 89 f6             	mov    %rsi,%r14
  40318e:	49 89 d5             	mov    %rdx,%r13
  403191:	4c 29 e5             	sub    %r12,%rbp
  403194:	48 83 ec 08          	sub    $0x8,%rsp
  403198:	48 c1 fd 03          	sar    $0x3,%rbp
  40319c:	e8 c7 db ff ff       	callq  400d68 <_init>
  4031a1:	48 85 ed             	test   %rbp,%rbp
  4031a4:	74 20                	je     4031c6 <__libc_csu_init+0x56>
  4031a6:	31 db                	xor    %ebx,%ebx
  4031a8:	0f 1f 84 00 00 00 00 	nopl   0x0(%rax,%rax,1)
  4031af:	00 
  4031b0:	4c 89 ea             	mov    %r13,%rdx
  4031b3:	4c 89 f6             	mov    %r14,%rsi
  4031b6:	44 89 ff             	mov    %r15d,%edi
  4031b9:	41 ff 14 dc          	callq  *(%r12,%rbx,8)
  4031bd:	48 83 c3 01          	add    $0x1,%rbx
  4031c1:	48 39 eb             	cmp    %rbp,%rbx
  4031c4:	75 ea                	jne    4031b0 <__libc_csu_init+0x40>
  4031c6:	48 83 c4 08          	add    $0x8,%rsp
  4031ca:	5b                   	pop    %rbx
  4031cb:	5d                   	pop    %rbp
  4031cc:	41 5c                	pop    %r12
  4031ce:	41 5d                	pop    %r13
  4031d0:	41 5e                	pop    %r14
  4031d2:	41 5f                	pop    %r15
  4031d4:	c3                   	retq   
  4031d5:	90                   	nop
  4031d6:	66 2e 0f 1f 84 00 00 	nopw   %cs:0x0(%rax,%rax,1)
  4031dd:	00 00 00 

00000000004031e0 <__libc_csu_fini>:
  4031e0:	f3 c3                	repz retq 

Disassembly of section .fini:

00000000004031e4 <_fini>:
  4031e4:	48 83 ec 08          	sub    $0x8,%rsp
  4031e8:	48 83 c4 08          	add    $0x8,%rsp
  4031ec:	c3                   	retq   
